ccopy_reg
_reconstructor
p0
(cmatplotlib.axes._subplots
_PicklableSubplotClassConstructor
p1
c__builtin__
object
p2
Ntp3
Rp4
(cmatplotlib.axes._axes
Axes
p5
tp6
Rp7
(dp8
S'transLimits'
p9
g0
(cmatplotlib.transforms
BboxTransformFrom
p10
g2
Ntp11
Rp12
(dp13
S'_invalid'
p14
I2
sS'_boxin'
p15
g0
(cmatplotlib.transforms
TransformedBbox
p16
g2
Ntp17
Rp18
(dp19
g14
I2
sS'_bbox'
p20
g0
(cmatplotlib.transforms
Bbox
p21
g2
Ntp22
Rp23
(dp24
g14
I2
sS'_minpos'
p25
cnumpy.core.multiarray
_reconstruct
p26
(cnumpy
ndarray
p27
(I0
tp28
S'b'
p29
tp30
Rp31
(I1
(I2
tp32
cnumpy
dtype
p33
(S'f8'
p34
I0
I1
tp35
Rp36
(I3
S'<'
p37
NNNI-1
I-1
I0
tp38
bI00
S'H\xaf\xbc\x9a\xf2\xd7z>H\xaf\xbc\x9a\xf2\xd7z>'
p39
tp40
bsS'_parents'
p41
(dp42
I4390073040
g18
ssS'_points_orig'
p43
g26
(g27
(I0
tp44
g29
tp45
Rp46
(I1
(I2
I2
tp47
g36
I00
S'\x00\x00\x00\x00\x00\x00\x00\x00\x00\x00\x00\x00\x00\x00\x00\x00\x00\x00\x00\x00\x00\x00\xf0?\x00\x00\x00\x00\x00\x00\xf0?'
p48
tp49
bsS'_points'
p50
g26
(g27
(I0
tp51
g29
tp52
Rp53
(I1
(I2
I2
tp54
g36
I00
S'\x00\x00\x00\x00\x00\x00\xe0?\x00\x00\x00\x00\x00\x00\x0c@\x00\x00\x00\x00\x00\x00\x0c@\x00\x00\x00\x00\x00\x00\x1a@'
p55
tp56
bsS'_ignore'
p57
I01
sS'_shorthand_name'
p58
V
p59
sbsS'_transform'
p60
g0
(cmatplotlib.transforms
TransformWrapper
p61
g2
Ntp62
Rp63
(dp64
Voutput_dims
p65
I2
sVparents
p66
(dp67
I4390073040
g18
sI4390073680
g0
(cmatplotlib.transforms
CompositeGenericTransform
p68
g2
Ntp69
Rp70
(dp71
g14
I2
sS'input_dims'
p72
I2
sS'_a'
p73
g63
sS'output_dims'
p74
I2
sS'_b'
p75
g0
(g68
g2
Ntp76
Rp77
(dp78
g14
I2
sg72
I2
sg73
g12
sg74
I2
sg75
g0
(cmatplotlib.transforms
BboxTransformTo
p79
g2
Ntp80
Rp81
(dp82
g14
I0
sS'_mtx'
p83
g26
(g27
(I0
tp84
g29
tp85
Rp86
(I1
(I3
I3
tp87
g36
I00
S'\x00\x00\x00\x00\x00\x00\x7f@\x00\x00\x00\x00\x00\x00\x00\x00\x00\x00\x00\x00\x00\x00T@\x00\x00\x00\x00\x00\x00\x00\x00\x00\x00\x00\x00\x00\x00x@\xfe\xff\xff\xff\xff\xffG@\x00\x00\x00\x00\x00\x00\x00\x00\x00\x00\x00\x00\x00\x00\x00\x00\x00\x00\x00\x00\x00\x00\xf0?'
p88
tp89
bsS'_inverted'
p90
g0
(cmatplotlib.transforms
Affine2D
p91
g2
Ntp92
Rp93
(dp94
g14
I0
sg90
Nsg83
g26
(g27
(I0
tp95
g29
tp96
Rp97
(I1
(I3
I3
tp98
g36
I00
S'\x84\x10B\x08!\x84`?\x00\x00\x00\x00\x00\x00\x00\x00\xa5\x94RJ)\xa5\xc4\xbf\x00\x00\x00\x00\x00\x00\x00\x00UUUUUUe?\xfd\xff\xff\xff\xff\xff\xbf\xbf\x00\x00\x00\x00\x00\x00\x00\x00\x00\x00\x00\x00\x00\x00\x00\x00\x00\x00\x00\x00\x00\x00\xf0?'
p99
tp100
bsg58
g59
sg41
(dp101
sbsS'_boxout'
p102
g0
(g16
g2
Ntp103
Rp104
(dp105
g14
I0
sg20
g0
(g21
g2
Ntp106
Rp107
(dp108
g14
I0
sg25
g26
(g27
(I0
tp109
g29
tp110
Rp111
(I1
(I2
tp112
g36
I00
S'H\xaf\xbc\x9a\xf2\xd7z>H\xaf\xbc\x9a\xf2\xd7z>'
p113
tp114
bsg41
(dp115
I4390072720
g104
ssg43
g26
(g27
(I0
tp116
g29
tp117
Rp118
(I1
(I2
I2
tp119
g36
I00
S'\x00\x00\x00\x00\x00\x00\xc0?\x98\x99\x99\x99\x99\x99\xb9?\xcd\xcc\xcc\xcc\xcc\xcc\xec?\xcd\xcc\xcc\xcc\xcc\xcc\xec?'
p120
tp121
bsg50
g26
(g27
(I0
tp122
g29
tp123
Rp124
(I1
(I2
I2
tp125
g36
I00
S'\x00\x00\x00\x00\x00\x00\xc0?\x98\x99\x99\x99\x99\x99\xb9?\xcd\xcc\xcc\xcc\xcc\xcc\xec?\xcd\xcc\xcc\xcc\xcc\xcc\xec?'
p126
tp127
bsg57
I01
sg58
g59
sbsg60
g0
(g79
g2
Ntp128
Rp129
(dp130
g14
I0
sg83
g26
(g27
(I0
tp131
g29
tp132
Rp133
(I1
(I3
I3
tp134
g36
I00
S'\x00\x00\x00\x00\x00\x00\x84@\x00\x00\x00\x00\x00\x00\x00\x00\x00\x00\x00\x00\x00\x00\x00\x00\x00\x00\x00\x00\x00\x00\x00\x00\x00\x00\x00\x00\x00\x00~@\x00\x00\x00\x00\x00\x00\x00\x00\x00\x00\x00\x00\x00\x00\x00\x00\x00\x00\x00\x00\x00\x00\x00\x00\x00\x00\x00\x00\x00\x00\xf0?'
p135
tp136
bsg90
Nsg102
g0
(g16
g2
Ntp137
Rp138
(dp139
g14
I0
sg20
g0
(g21
g2
Ntp140
Rp141
(dp142
g14
I0
sg25
g26
(g27
(I0
tp143
g29
tp144
Rp145
(I1
(I2
tp146
g36
I00
S'H\xaf\xbc\x9a\xf2\xd7z>H\xaf\xbc\x9a\xf2\xd7z>'
p147
tp148
bsg41
(dp149
I4389923344
g138
ssg43
g26
(g27
(I0
tp150
g29
tp151
Rp152
(I1
(I2
I2
tp153
g36
I00
S'\x00\x00\x00\x00\x00\x00\x00\x00\x00\x00\x00\x00\x00\x00\x00\x00\x00\x00\x00\x00\x00\x00 @\x00\x00\x00\x00\x00\x00\x18@'
p154
tp155
bsg50
g26
(g27
(I0
tp156
g29
tp157
Rp158
(I1
(I2
I2
tp159
g36
I00
S'\x00\x00\x00\x00\x00\x00\x00\x00\x00\x00\x00\x00\x00\x00\x00\x00\x00\x00\x00\x00\x00\x00 @\x00\x00\x00\x00\x00\x00\x18@'
p160
tp161
bsg57
I01
sg58
g59
sbsg60
g0
(g91
g2
Ntp162
Rp163
(dp164
g14
I0
sg90
Nsg83
g26
(g27
(I0
tp165
g29
tp166
Rp167
(I1
(I3
I3
tp168
g36
I00
S'\x00\x00\x00\x00\x00\x00T@\x00\x00\x00\x00\x00\x00\x00\x00\x00\x00\x00\x00\x00\x00\x00\x00\x00\x00\x00\x00\x00\x00\x00\x00\x00\x00\x00\x00\x00\x00T@\x00\x00\x00\x00\x00\x00\x00\x00\x00\x00\x00\x00\x00\x00\x00\x00\x00\x00\x00\x00\x00\x00\x00\x00\x00\x00\x00\x00\x00\x00\xf0?'
p169
tp170
bsg58
g59
sg41
(dp171
I4457001936
g0
(cmatplotlib.transforms
ScaledTranslation
p172
g2
Ntp173
Rp174
(dp175
g14
I1
sg83
NsS'_scale_trans'
p176
g163
sg90
NsS'_t'
p177
(F0.05555555555555555
I0
tp178
sg58
g59
sg41
(dp179
I4457002000
g0
(g68
g2
Ntp180
Rp181
(dp182
g14
I2
sg72
I2
sg73
g0
(cmatplotlib.transforms
BlendedGenericTransform
p183
g2
Ntp184
Rp185
(dp186
g14
I2
sS'_y'
p187
g70
sS'_x'
p188
g81
sS'_affine'
p189
Nsg41
(dp190
I4443534672
g0
(g68
g2
Ntp191
Rp192
(dp193
g14
I2
sg72
I2
sg73
g185
sg74
I2
sg75
g0
(g172
g2
Ntp194
Rp195
(dp196
g14
I1
sg83
Nsg176
g163
sg90
Nsg177
(F0.05555555555555555
I0
tp197
sg58
g59
sg41
(dp198
I4443534672
g192
ssbsg41
(dp199
sg58
g59
sbsI4456967056
g0
(g68
g2
Ntp200
Rp201
(dp202
g14
I2
sg72
I2
sg73
g185
sg74
I2
sg75
g0
(g172
g2
Ntp203
Rp204
(dp205
g14
I1
sg83
Nsg176
g163
sg90
Nsg177
(F-0.05555555555555555
I0
tp206
sg58
g59
sg41
(dp207
I4456967056
g201
ssbsg41
(dp208
sg58
g59
sbsI4443535312
g0
(g68
g2
Ntp209
Rp210
(dp211
g14
I2
sg72
I2
sg73
g185
sg74
I2
sg75
g0
(g172
g2
Ntp212
Rp213
(dp214
g14
I1
sg83
Nsg176
g163
sg90
Nsg177
(F-0.05555555555555555
I0
tp215
sg58
g59
sg41
(dp216
I4443535312
g210
ssbsg41
(dp217
sg58
g59
sbsI4443412496
g0
(g68
g2
Ntp218
Rp219
(dp220
g14
I2
sg72
I2
sg73
g185
sg74
I2
sg75
g0
(g172
g2
Ntp221
Rp222
(dp223
g14
I1
sg83
Nsg176
g163
sg90
Nsg177
(F0.05555555555555555
I0
tp224
sg58
g59
sg41
(dp225
I4443412496
g219
ssbsg41
(dp226
sg58
g59
sbsI4456967312
g0
(g68
g2
Ntp227
Rp228
(dp229
g14
I2
sg72
I2
sg73
g185
sg74
I2
sg75
g0
(g172
g2
Ntp230
Rp231
(dp232
g14
I1
sg83
Nsg176
g163
sg90
Nsg177
(F0.05555555555555555
I0
tp233
sg58
g59
sg41
(dp234
I4456967312
g228
ssbsg41
(dp235
sg58
g59
sbsI4443414352
g0
(g68
g2
Ntp236
Rp237
(dp238
g14
I2
sg72
I2
sg73
g185
sg74
I2
sg75
g0
(g172
g2
Ntp239
Rp240
(dp241
g14
I1
sg83
Nsg176
g163
sg90
Nsg177
(F-0.05555555555555555
I0
tp242
sg58
g59
sg41
(dp243
I4443414352
g237
ssbsg41
(dp244
sg58
g59
sbsI4457002000
g181
sI4457001744
g0
(g68
g2
Ntp245
Rp246
(dp247
g14
I2
sg72
I2
sg73
g185
sg74
I2
sg75
g0
(g172
g2
Ntp248
Rp249
(dp250
g14
I1
sg83
Nsg176
g163
sg90
Nsg177
(F-0.05555555555555555
I0
tp251
sg58
g59
sg41
(dp252
I4457001744
g246
ssbsg41
(dp253
sg58
g59
sbssg58
g59
sbsg74
I2
sg75
g174
sg41
(dp254
sg58
g59
sbssbsI4443575248
g0
(g172
g2
Ntp255
Rp256
(dp257
g14
I1
sg83
Nsg176
g163
sg90
Nsg177
(I0
F0.05555555555555555
tp258
sg58
g59
sg41
(dp259
I4443575312
g0
(g68
g2
Ntp260
Rp261
(dp262
g14
I2
sg72
I2
sg73
g0
(g183
g2
Ntp263
Rp264
(dp265
g14
I2
sg187
g81
sg188
g70
sg189
Nsg41
(dp266
I4456922064
g0
(g68
g2
Ntp267
Rp268
(dp269
g14
I2
sg72
I2
sg73
g264
sg74
I2
sg75
g0
(g172
g2
Ntp270
Rp271
(dp272
g14
I1
sg83
Nsg176
g163
sg90
Nsg177
(I0
F-0.05555555555555555
tp273
sg58
g59
sg41
(dp274
I4456922064
g268
ssbsg41
(dp275
sg58
g59
sbsI4456920080
g0
(g68
g2
Ntp276
Rp277
(dp278
g14
I2
sg72
I2
sg73
g264
sg74
I2
sg75
g0
(g172
g2
Ntp279
Rp280
(dp281
g14
I1
sg83
Nsg176
g163
sg90
Nsg177
(I0
F0.05555555555555555
tp282
sg58
g59
sg41
(dp283
I4456920080
g277
ssbsg41
(dp284
sg58
g59
sbsI4456966352
g0
(g68
g2
Ntp285
Rp286
(dp287
g14
I2
sg72
I2
sg73
g264
sg74
I2
sg75
g0
(g172
g2
Ntp288
Rp289
(dp290
g14
I1
sg83
Nsg176
g163
sg90
Nsg177
(I0
F-0.05555555555555555
tp291
sg58
g59
sg41
(dp292
I4456966352
g286
ssbsg41
(dp293
sg58
g59
sbsI4443575312
g261
sI4456964560
g0
(g68
g2
Ntp294
Rp295
(dp296
g14
I2
sg72
I2
sg73
g264
sg74
I2
sg75
g0
(g172
g2
Ntp297
Rp298
(dp299
g14
I1
sg83
Nsg176
g163
sg90
Nsg177
(I0
F-0.05555555555555555
tp300
sg58
g59
sg41
(dp301
I4456964560
g295
ssbsg41
(dp302
sg58
g59
sbsI4456964752
g0
(g68
g2
Ntp303
Rp304
(dp305
g14
I2
sg72
I2
sg73
g264
sg74
I2
sg75
g0
(g172
g2
Ntp306
Rp307
(dp308
g14
I1
sg83
Nsg176
g163
sg90
Nsg177
(I0
F0.05555555555555555
tp309
sg58
g59
sg41
(dp310
I4456964752
g304
ssbsg41
(dp311
sg58
g59
sbsI4443574992
g0
(g68
g2
Ntp312
Rp313
(dp314
g14
I2
sg72
I2
sg73
g264
sg74
I2
sg75
g0
(g172
g2
Ntp315
Rp316
(dp317
g14
I1
sg83
Nsg176
g163
sg90
Nsg177
(I0
F-0.05555555555555555
tp318
sg58
g59
sg41
(dp319
I4443574992
g313
ssbsg41
(dp320
sg58
g59
sbsI4456966608
g0
(g68
g2
Ntp321
Rp322
(dp323
g14
I2
sg72
I2
sg73
g264
sg74
I2
sg75
g0
(g172
g2
Ntp324
Rp325
(dp326
g14
I1
sg83
Nsg176
g163
sg90
Nsg177
(I0
F0.05555555555555555
tp327
sg58
g59
sg41
(dp328
I4456966608
g322
ssbsg41
(dp329
sg58
g59
sbssg58
g59
sbsg74
I2
sg75
g256
sg41
(dp330
sg58
g59
sbssbsI4456922128
g271
sI4456920144
g280
sI4389923344
g138
sI4456966288
g289
sI4443533520
g195
sI4456964368
g298
sI4456967248
g231
sI4456966992
g204
sI4443413904
g240
sI4456966544
g325
sI4443410960
g222
sI4456964688
g307
sI4443574928
g316
sI4457001680
g249
sI4457003024
g0
(g172
g2
Ntp331
Rp332
(dp333
g14
I1
sg83
Nsg176
g163
sg90
Nsg177
(F0.0
F0.06944444444444445
tp334
sg58
g59
sg41
(dp335
I4457003472
g0
(g68
g2
Ntp336
Rp337
(dp338
g14
I1
sg72
I2
sg73
g81
sg74
I2
sg75
g332
sg41
(dp339
sg58
g59
sbsI4457003536
g0
(g68
g2
Ntp340
Rp341
(dp342
g14
I1
sg72
I2
sg73
g81
sg74
I2
sg75
g332
sg41
(dp343
sg58
g59
sbsI4457003600
g0
(g68
g2
Ntp344
Rp345
(dp346
g14
I1
sg72
I2
sg73
g81
sg74
I2
sg75
g332
sg41
(dp347
sg58
g59
sbssbsI4443536464
g213
ssbsg50
g26
(g27
(I0
tp348
g29
tp349
Rp350
(I1
(I2
I2
tp351
g36
I00
S'\x00\x00\x00\x00\x00\x00\x00\x00\x00\x00\x00\x00\x00\x00\x00\x00\x00\x00\x00\x00\x00\x00\x84@\x00\x00\x00\x00\x00\x00~@'
p352
tp353
bsg41
(dp354
I4389923408
g129
ssg58
g59
sbsg41
(dp355
I4390072720
g104
ssg58
g59
sbsg50
g26
(g27
(I0
tp356
g29
tp357
Rp358
(I1
(I2
I2
tp359
g36
I00
S'\x00\x00\x00\x00\x00\x00T@\xfe\xff\xff\xff\xff\xffG@\x00\x00\x00\x00\x00\x00\x82@\x00\x00\x00\x00\x00\x00{@'
p360
tp361
bsg41
(dp362
I4390073168
g81
ssg58
g59
sbsg41
(dp363
I4457108304
g0
(g68
g2
Ntp364
Rp365
(dp366
g14
I1
sg72
I2
sg73
g0
(g68
g2
Ntp367
Rp368
(dp369
g14
I1
sg72
I2
sg73
g0
(g79
g2
Ntp370
Rp371
(dp372
g14
I1
sg83
Nsg90
Nsg102
g0
(g21
g2
Ntp373
Rp374
(dp375
g14
I1
sg25
g26
(g27
(I0
tp376
g29
tp377
Rp378
(I1
(I2
tp379
g36
I00
S'H\xaf\xbc\x9a\xf2\xd7z>H\xaf\xbc\x9a\xf2\xd7z>'
p380
tp381
bsg41
(dp382
I4457108112
g371
ssg43
g26
(g27
(I0
tp383
g29
tp384
Rp385
(I1
(I2
I2
tp386
g36
I00
S'\x00\x00\x00\x00\x00\x00\x00\x00\x00\x00\x00\x00\x00\x00\x00\x00\x00\x00\x00\x00\x00\x00\xf0?\x00\x00\x00\x00\x00\x00\xf0?'
p387
tp388
bsg50
g26
(g27
(I0
tp389
g29
tp390
Rp391
(I1
(I2
I2
tp392
g36
I00
S'\x00\x00\x00\x00\x00\x00\x00\x00\x00\x00\x00\x00\x00\x00\x00\x00\x00\x00\x00\x00\x00\x00\xf0?\x00\x00\x00\x00\x00\x00\xf0?'
p393
tp394
bsg57
I01
sg58
g59
sbsg41
(dp395
I4457108240
g368
ssg58
g59
sbsg74
I2
sg75
g0
(g91
g2
Ntp396
Rp397
(dp398
g14
I2
sg90
Nsg83
g26
(g27
(I0
tp399
g29
tp400
Rp401
(I1
(I3
I3
tp402
g36
I00
S'\x00\x00\x00\x00\x00\x00\xf0?\x00\x00\x00\x00\x00\x00\x00\x00\x00\x00\x00\x00\x00\x00\x00\x00\x00\x00\x00\x00\x00\x00\x00\x00\x00\x00\x00\x00\x00\x00\xf0?\x00\x00\x00\x00\x00\x00\x00\x00\x00\x00\x00\x00\x00\x00\x00\x00\x00\x00\x00\x00\x00\x00\x00\x00\x00\x00\x00\x00\x00\x00\xf0?'
p403
tp404
bsg58
g59
sg41
(dp405
I4457108240
g368
ssbsg41
(dp406
I4457108304
g365
ssg58
g59
sbsg74
I2
sg75
g81
sg41
(dp407
I4457108432
g0
(g16
g2
Ntp408
Rp409
(dp410
g14
I1
sg20
g0
(g21
g2
Ntp411
Rp412
(dp413
g14
I1
sg25
g26
(g27
(I0
tp414
g29
tp415
Rp416
(I1
(I2
tp417
g36
I00
S'H\xaf\xbc\x9a\xf2\xd7z>H\xaf\xbc\x9a\xf2\xd7z>'
p418
tp419
bsg41
(dp420
I4457108432
g409
ssg43
g26
(g27
(I0
tp421
g29
tp422
Rp423
(I1
(I2
I2
tp424
g36
I00
S'\x00\x00\x00\x00\x00\x00\x00\x00\x00\x00\x00\x00\x00\x00\x00\x00\x00\x00\x00\x00\x00\x00\xf0?\x00\x00\x00\x00\x00\x00\xf0?'
p425
tp426
bsg50
g26
(g27
(I0
tp427
g29
tp428
Rp429
(I1
(I2
I2
tp430
g36
I00
S'\x00\x00\x00\x00\x00\x00\x00\x00\x00\x00\x00\x00\x00\x00\x00\x00\x00\x00\x00\x00\x00\x00\xf0?\x00\x00\x00\x00\x00\x00\xf0?'
p431
tp432
bsg57
I01
sg58
g59
sbsg60
g365
sg50
Nsg41
(dp433
sg58
g59
sbssg58
g59
sbsI4457162000
g0
(g68
g2
Ntp434
Rp435
(dp436
g14
I1
sg72
I2
sg73
g0
(g68
g2
Ntp437
Rp438
(dp439
g14
I1
sg72
I2
sg73
g0
(g79
g2
Ntp440
Rp441
(dp442
g14
I1
sg83
Nsg90
Nsg102
g0
(g21
g2
Ntp443
Rp444
(dp445
g14
I1
sg25
g26
(g27
(I0
tp446
g29
tp447
Rp448
(I1
(I2
tp449
g36
I00
S'H\xaf\xbc\x9a\xf2\xd7z>H\xaf\xbc\x9a\xf2\xd7z>'
p450
tp451
bsg41
(dp452
I4457161808
g441
ssg43
g26
(g27
(I0
tp453
g29
tp454
Rp455
(I1
(I2
I2
tp456
g36
I00
S'\x00\x00\x00\x00\x00\x00\x00\x00\x00\x00\x00\x00\x00\x00\x00\x00\x00\x00\x00\x00\x00\x00\xf0?\x00\x00\x00\x00\x00\x00\xf0?'
p457
tp458
bsg50
g26
(g27
(I0
tp459
g29
tp460
Rp461
(I1
(I2
I2
tp462
g36
I00
S'\x00\x00\x00\x00\x00\x00\x00\x00\x00\x00\x00\x00\x00\x00\x00\x00\x00\x00\x00\x00\x00\x00\xf0?\x00\x00\x00\x00\x00\x00\xf0?'
p463
tp464
bsg57
I01
sg58
g59
sbsg41
(dp465
I4457161936
g438
ssg58
g59
sbsg74
I2
sg75
g0
(g91
g2
Ntp466
Rp467
(dp468
g14
I2
sg90
Nsg83
g26
(g27
(I0
tp469
g29
tp470
Rp471
(I1
(I3
I3
tp472
g36
I00
S'\x00\x00\x00\x00\x00\x00\xf0?\x00\x00\x00\x00\x00\x00\x00\x00\x00\x00\x00\x00\x00\x00\x00\x00\x00\x00\x00\x00\x00\x00\x00\x00\x00\x00\x00\x00\x00\x00\xf0?\x00\x00\x00\x00\x00\x00\x00\x00\x00\x00\x00\x00\x00\x00\x00\x00\x00\x00\x00\x00\x00\x00\x00\x00\x00\x00\x00\x00\x00\x00\xf0?'
p473
tp474
bsg58
g59
sg41
(dp475
I4457161936
g438
ssbsg41
(dp476
I4457162000
g435
ssg58
g59
sbsg74
I2
sg75
g81
sg41
(dp477
I4457162128
g0
(g16
g2
Ntp478
Rp479
(dp480
g14
I1
sg20
g0
(g21
g2
Ntp481
Rp482
(dp483
g14
I1
sg25
g26
(g27
(I0
tp484
g29
tp485
Rp486
(I1
(I2
tp487
g36
I00
S'H\xaf\xbc\x9a\xf2\xd7z>H\xaf\xbc\x9a\xf2\xd7z>'
p488
tp489
bsg41
(dp490
I4457162128
g479
ssg43
g26
(g27
(I0
tp491
g29
tp492
Rp493
(I1
(I2
I2
tp494
g36
I00
S'\x00\x00\x00\x00\x00\x00\x00\x00\x00\x00\x00\x00\x00\x00\x00\x00\x00\x00\x00\x00\x00\x00\xf0?\x00\x00\x00\x00\x00\x00\xf0?'
p495
tp496
bsg50
g26
(g27
(I0
tp497
g29
tp498
Rp499
(I1
(I2
I2
tp500
g36
I00
S'\x00\x00\x00\x00\x00\x00\x00\x00\x00\x00\x00\x00\x00\x00\x00\x00\x00\x00\x00\x00\x00\x00\xf0?\x00\x00\x00\x00\x00\x00\xf0?'
p501
tp502
bsg57
I01
sg58
g59
sbsg60
g435
sg50
Nsg41
(dp503
sg58
g59
sbssg58
g59
sbsI4457162896
g0
(g68
g2
Ntp504
Rp505
(dp506
g14
I1
sg72
I2
sg73
g0
(g68
g2
Ntp507
Rp508
(dp509
g14
I1
sg72
I2
sg73
g0
(g79
g2
Ntp510
Rp511
(dp512
g14
I1
sg83
Nsg90
Nsg102
g0
(g21
g2
Ntp513
Rp514
(dp515
g14
I1
sg25
g26
(g27
(I0
tp516
g29
tp517
Rp518
(I1
(I2
tp519
g36
I00
S'H\xaf\xbc\x9a\xf2\xd7z>H\xaf\xbc\x9a\xf2\xd7z>'
p520
tp521
bsg41
(dp522
I4457162704
g511
ssg43
g26
(g27
(I0
tp523
g29
tp524
Rp525
(I1
(I2
I2
tp526
g36
I00
S'\x00\x00\x00\x00\x00\x00\x00\x00\x00\x00\x00\x00\x00\x00\x00\x00\x00\x00\x00\x00\x00\x00\xf0?\x00\x00\x00\x00\x00\x00\xf0?'
p527
tp528
bsg50
g26
(g27
(I0
tp529
g29
tp530
Rp531
(I1
(I2
I2
tp532
g36
I00
S'\x00\x00\x00\x00\x00\x00\x00\x00\x00\x00\x00\x00\x00\x00\x00\x00\x00\x00\x00\x00\x00\x00\xf0?\x00\x00\x00\x00\x00\x00\xf0?'
p533
tp534
bsg57
I01
sg58
g59
sbsg41
(dp535
I4457162832
g508
ssg58
g59
sbsg74
I2
sg75
g0
(g91
g2
Ntp536
Rp537
(dp538
g14
I2
sg90
Nsg83
g26
(g27
(I0
tp539
g29
tp540
Rp541
(I1
(I3
I3
tp542
g36
I00
S'\x00\x00\x00\x00\x00\x00\xf0?\x00\x00\x00\x00\x00\x00\x00\x00\x00\x00\x00\x00\x00\x00\x00\x00\x00\x00\x00\x00\x00\x00\x00\x00\x00\x00\x00\x00\x00\x00\xf0?\x00\x00\x00\x00\x00\x00\x00\x00\x00\x00\x00\x00\x00\x00\x00\x00\x00\x00\x00\x00\x00\x00\x00\x00\x00\x00\x00\x00\x00\x00\xf0?'
p543
tp544
bsg58
g59
sg41
(dp545
I4457162832
g508
ssbsg41
(dp546
I4457162896
g505
ssg58
g59
sbsg74
I2
sg75
g81
sg41
(dp547
I4457163024
g0
(g16
g2
Ntp548
Rp549
(dp550
g14
I1
sg20
g0
(g21
g2
Ntp551
Rp552
(dp553
g14
I1
sg25
g26
(g27
(I0
tp554
g29
tp555
Rp556
(I1
(I2
tp557
g36
I00
S'H\xaf\xbc\x9a\xf2\xd7z>H\xaf\xbc\x9a\xf2\xd7z>'
p558
tp559
bsg41
(dp560
I4457163024
g549
ssg43
g26
(g27
(I0
tp561
g29
tp562
Rp563
(I1
(I2
I2
tp564
g36
I00
S'\x00\x00\x00\x00\x00\x00\x00\x00\x00\x00\x00\x00\x00\x00\x00\x00\x00\x00\x00\x00\x00\x00\xf0?\x00\x00\x00\x00\x00\x00\xf0?'
p565
tp566
bsg50
g26
(g27
(I0
tp567
g29
tp568
Rp569
(I1
(I2
I2
tp570
g36
I00
S'\x00\x00\x00\x00\x00\x00\x00\x00\x00\x00\x00\x00\x00\x00\x00\x00\x00\x00\x00\x00\x00\x00\xf0?\x00\x00\x00\x00\x00\x00\xf0?'
p571
tp572
bsg57
I01
sg58
g59
sbsg60
g505
sg50
Nsg41
(dp573
sg58
g59
sbssg58
g59
sbsI4390073616
g77
sI4457110032
g0
(g68
g2
Ntp574
Rp575
(dp576
g14
I1
sg72
I2
sg73
g0
(g68
g2
Ntp577
Rp578
(dp579
g14
I1
sg72
I2
sg73
g0
(g79
g2
Ntp580
Rp581
(dp582
g14
I1
sg83
Nsg90
Nsg102
g0
(g21
g2
Ntp583
Rp584
(dp585
g14
I1
sg25
g26
(g27
(I0
tp586
g29
tp587
Rp588
(I1
(I2
tp589
g36
I00
S'H\xaf\xbc\x9a\xf2\xd7z>H\xaf\xbc\x9a\xf2\xd7z>'
p590
tp591
bsg41
(dp592
I4457109840
g581
ssg43
g26
(g27
(I0
tp593
g29
tp594
Rp595
(I1
(I2
I2
tp596
g36
I00
S'\x00\x00\x00\x00\x00\x00\x00\x00\x00\x00\x00\x00\x00\x00\x00\x00\x00\x00\x00\x00\x00\x00\xf0?\x00\x00\x00\x00\x00\x00\xf0?'
p597
tp598
bsg50
g26
(g27
(I0
tp599
g29
tp600
Rp601
(I1
(I2
I2
tp602
g36
I00
S'\x00\x00\x00\x00\x00\x00\x00\x00\x00\x00\x00\x00\x00\x00\x00\x00\x00\x00\x00\x00\x00\x00\xf0?\x00\x00\x00\x00\x00\x00\xf0?'
p603
tp604
bsg57
I01
sg58
g59
sbsg41
(dp605
I4457109968
g578
ssg58
g59
sbsg74
I2
sg75
g0
(g91
g2
Ntp606
Rp607
(dp608
g14
I2
sg90
Nsg83
g26
(g27
(I0
tp609
g29
tp610
Rp611
(I1
(I3
I3
tp612
g36
I00
S'\x00\x00\x00\x00\x00\x00\xf0?\x00\x00\x00\x00\x00\x00\x00\x00\x00\x00\x00\x00\x00\x00\x00\x00\x00\x00\x00\x00\x00\x00\x00\x00\x00\x00\x00\x00\x00\x00\xf0?\x00\x00\x00\x00\x00\x00\x00\x00\x00\x00\x00\x00\x00\x00\x00\x00\x00\x00\x00\x00\x00\x00\x00\x00\x00\x00\x00\x00\x00\x00\xf0?'
p613
tp614
bsg58
g59
sg41
(dp615
I4457109968
g578
ssbsg41
(dp616
I4457110032
g575
ssg58
g59
sbsg74
I2
sg75
g81
sg41
(dp617
I4457110160
g0
(g16
g2
Ntp618
Rp619
(dp620
g14
I1
sg20
g0
(g21
g2
Ntp621
Rp622
(dp623
g14
I1
sg25
g26
(g27
(I0
tp624
g29
tp625
Rp626
(I1
(I2
tp627
g36
I00
S'H\xaf\xbc\x9a\xf2\xd7z>H\xaf\xbc\x9a\xf2\xd7z>'
p628
tp629
bsg41
(dp630
I4457110160
g619
ssg43
g26
(g27
(I0
tp631
g29
tp632
Rp633
(I1
(I2
I2
tp634
g36
I00
S'\x00\x00\x00\x00\x00\x00\x00\x00\x00\x00\x00\x00\x00\x00\x00\x00\x00\x00\x00\x00\x00\x00\xf0?\x00\x00\x00\x00\x00\x00\xf0?'
p635
tp636
bsg50
g26
(g27
(I0
tp637
g29
tp638
Rp639
(I1
(I2
I2
tp640
g36
I00
S'\x00\x00\x00\x00\x00\x00\x00\x00\x00\x00\x00\x00\x00\x00\x00\x00\x00\x00\x00\x00\x00\x00\xf0?\x00\x00\x00\x00\x00\x00\xf0?'
p641
tp642
bsg57
I01
sg58
g59
sbsg60
g575
sg50
Nsg41
(dp643
sg58
g59
sbssg58
g59
sbsI4390073872
g185
sI4457055504
g0
(g68
g2
Ntp644
Rp645
(dp646
g14
I1
sg72
I2
sg73
g0
(g68
g2
Ntp647
Rp648
(dp649
g14
I1
sg72
I2
sg73
g0
(g79
g2
Ntp650
Rp651
(dp652
g14
I1
sg83
Nsg90
Nsg102
g0
(g21
g2
Ntp653
Rp654
(dp655
g14
I1
sg25
g26
(g27
(I0
tp656
g29
tp657
Rp658
(I1
(I2
tp659
g36
I00
S'H\xaf\xbc\x9a\xf2\xd7z>H\xaf\xbc\x9a\xf2\xd7z>'
p660
tp661
bsg41
(dp662
I4457055312
g651
ssg43
g26
(g27
(I0
tp663
g29
tp664
Rp665
(I1
(I2
I2
tp666
g36
I00
S'\x00\x00\x00\x00\x00\x00\x00\x00\x00\x00\x00\x00\x00\x00\x00\x00\x00\x00\x00\x00\x00\x00\xf0?\x00\x00\x00\x00\x00\x00\xf0?'
p667
tp668
bsg50
g26
(g27
(I0
tp669
g29
tp670
Rp671
(I1
(I2
I2
tp672
g36
I00
S'\x00\x00\x00\x00\x00\x00\x00\x00\x00\x00\x00\x00\x00\x00\x00\x00\x00\x00\x00\x00\x00\x00\xf0?\x00\x00\x00\x00\x00\x00\xf0?'
p673
tp674
bsg57
I01
sg58
g59
sbsg41
(dp675
I4457055440
g648
ssg58
g59
sbsg74
I2
sg75
g0
(g91
g2
Ntp676
Rp677
(dp678
g14
I2
sg90
Nsg83
g26
(g27
(I0
tp679
g29
tp680
Rp681
(I1
(I3
I3
tp682
g36
I00
S'\x00\x00\x00\x00\x00\x00\xf0?\x00\x00\x00\x00\x00\x00\x00\x00\x00\x00\x00\x00\x00\x00\x00\x00\x00\x00\x00\x00\x00\x00\x00\x00\x00\x00\x00\x00\x00\x00\xf0?\x00\x00\x00\x00\x00\x00\x00\x00\x00\x00\x00\x00\x00\x00\x00\x00\x00\x00\x00\x00\x00\x00\x00\x00\x00\x00\x00\x00\x00\x00\xf0?'
p683
tp684
bsg58
g59
sg41
(dp685
I4457055440
g648
ssbsg41
(dp686
I4457055504
g645
ssg58
g59
sbsg74
I2
sg75
g81
sg41
(dp687
I4457055632
g0
(g16
g2
Ntp688
Rp689
(dp690
g14
I1
sg20
g0
(g21
g2
Ntp691
Rp692
(dp693
g14
I1
sg25
g26
(g27
(I0
tp694
g29
tp695
Rp696
(I1
(I2
tp697
g36
I00
S'H\xaf\xbc\x9a\xf2\xd7z>H\xaf\xbc\x9a\xf2\xd7z>'
p698
tp699
bsg41
(dp700
I4457055632
g689
ssg43
g26
(g27
(I0
tp701
g29
tp702
Rp703
(I1
(I2
I2
tp704
g36
I00
S'\x00\x00\x00\x00\x00\x00\x00\x00\x00\x00\x00\x00\x00\x00\x00\x00\x00\x00\x00\x00\x00\x00\xf0?\x00\x00\x00\x00\x00\x00\xf0?'
p705
tp706
bsg50
g26
(g27
(I0
tp707
g29
tp708
Rp709
(I1
(I2
I2
tp710
g36
I00
S'\x00\x00\x00\x00\x00\x00\x00\x00\x00\x00\x00\x00\x00\x00\x00\x00\x00\x00\x00\x00\x00\x00\xf0?\x00\x00\x00\x00\x00\x00\xf0?'
p711
tp712
bsg57
I01
sg58
g59
sbsg60
g645
sg50
Nsg41
(dp713
sg58
g59
sbssg58
g59
sbsI4457109200
g0
(g68
g2
Ntp714
Rp715
(dp716
g14
I1
sg72
I2
sg73
g0
(g68
g2
Ntp717
Rp718
(dp719
g14
I1
sg72
I2
sg73
g0
(g79
g2
Ntp720
Rp721
(dp722
g14
I1
sg83
Nsg90
Nsg102
g0
(g21
g2
Ntp723
Rp724
(dp725
g14
I1
sg25
g26
(g27
(I0
tp726
g29
tp727
Rp728
(I1
(I2
tp729
g36
I00
S'H\xaf\xbc\x9a\xf2\xd7z>H\xaf\xbc\x9a\xf2\xd7z>'
p730
tp731
bsg41
(dp732
I4457109008
g721
ssg43
g26
(g27
(I0
tp733
g29
tp734
Rp735
(I1
(I2
I2
tp736
g36
I00
S'\x00\x00\x00\x00\x00\x00\x00\x00\x00\x00\x00\x00\x00\x00\x00\x00\x00\x00\x00\x00\x00\x00\xf0?\x00\x00\x00\x00\x00\x00\xf0?'
p737
tp738
bsg50
g26
(g27
(I0
tp739
g29
tp740
Rp741
(I1
(I2
I2
tp742
g36
I00
S'\x00\x00\x00\x00\x00\x00\x00\x00\x00\x00\x00\x00\x00\x00\x00\x00\x00\x00\x00\x00\x00\x00\xf0?\x00\x00\x00\x00\x00\x00\xf0?'
p743
tp744
bsg57
I01
sg58
g59
sbsg41
(dp745
I4457109136
g718
ssg58
g59
sbsg74
I2
sg75
g0
(g91
g2
Ntp746
Rp747
(dp748
g14
I2
sg90
Nsg83
g26
(g27
(I0
tp749
g29
tp750
Rp751
(I1
(I3
I3
tp752
g36
I00
S'\x00\x00\x00\x00\x00\x00\xf0?\x00\x00\x00\x00\x00\x00\x00\x00\x00\x00\x00\x00\x00\x00\x00\x00\x00\x00\x00\x00\x00\x00\x00\x00\x00\x00\x00\x00\x00\x00\xf0?\x00\x00\x00\x00\x00\x00\x00\x00\x00\x00\x00\x00\x00\x00\x00\x00\x00\x00\x00\x00\x00\x00\x00\x00\x00\x00\x00\x00\x00\x00\xf0?'
p753
tp754
bsg58
g59
sg41
(dp755
I4457109136
g718
ssbsg41
(dp756
I4457109200
g715
ssg58
g59
sbsg74
I2
sg75
g81
sg41
(dp757
I4457109328
g0
(g16
g2
Ntp758
Rp759
(dp760
g14
I1
sg20
g0
(g21
g2
Ntp761
Rp762
(dp763
g14
I1
sg25
g26
(g27
(I0
tp764
g29
tp765
Rp766
(I1
(I2
tp767
g36
I00
S'H\xaf\xbc\x9a\xf2\xd7z>H\xaf\xbc\x9a\xf2\xd7z>'
p768
tp769
bsg41
(dp770
I4457109328
g759
ssg43
g26
(g27
(I0
tp771
g29
tp772
Rp773
(I1
(I2
I2
tp774
g36
I00
S'\x00\x00\x00\x00\x00\x00\x00\x00\x00\x00\x00\x00\x00\x00\x00\x00\x00\x00\x00\x00\x00\x00\xf0?\x00\x00\x00\x00\x00\x00\xf0?'
p775
tp776
bsg50
g26
(g27
(I0
tp777
g29
tp778
Rp779
(I1
(I2
I2
tp780
g36
I00
S'\x00\x00\x00\x00\x00\x00\x00\x00\x00\x00\x00\x00\x00\x00\x00\x00\x00\x00\x00\x00\x00\x00\xf0?\x00\x00\x00\x00\x00\x00\xf0?'
p781
tp782
bsg57
I01
sg58
g59
sbsg60
g715
sg50
Nsg41
(dp783
sg58
g59
sbssg58
g59
sbsI4457056400
g0
(g68
g2
Ntp784
Rp785
(dp786
g14
I1
sg72
I2
sg73
g0
(g68
g2
Ntp787
Rp788
(dp789
g14
I1
sg72
I2
sg73
g0
(g79
g2
Ntp790
Rp791
(dp792
g14
I1
sg83
Nsg90
Nsg102
g0
(g21
g2
Ntp793
Rp794
(dp795
g14
I1
sg25
g26
(g27
(I0
tp796
g29
tp797
Rp798
(I1
(I2
tp799
g36
I00
S'H\xaf\xbc\x9a\xf2\xd7z>H\xaf\xbc\x9a\xf2\xd7z>'
p800
tp801
bsg41
(dp802
I4457056208
g791
ssg43
g26
(g27
(I0
tp803
g29
tp804
Rp805
(I1
(I2
I2
tp806
g36
I00
S'\x00\x00\x00\x00\x00\x00\x00\x00\x00\x00\x00\x00\x00\x00\x00\x00\x00\x00\x00\x00\x00\x00\xf0?\x00\x00\x00\x00\x00\x00\xf0?'
p807
tp808
bsg50
g26
(g27
(I0
tp809
g29
tp810
Rp811
(I1
(I2
I2
tp812
g36
I00
S'\x00\x00\x00\x00\x00\x00\x00\x00\x00\x00\x00\x00\x00\x00\x00\x00\x00\x00\x00\x00\x00\x00\xf0?\x00\x00\x00\x00\x00\x00\xf0?'
p813
tp814
bsg57
I01
sg58
g59
sbsg41
(dp815
I4457056336
g788
ssg58
g59
sbsg74
I2
sg75
g0
(g91
g2
Ntp816
Rp817
(dp818
g14
I2
sg90
Nsg83
g26
(g27
(I0
tp819
g29
tp820
Rp821
(I1
(I3
I3
tp822
g36
I00
S'\x00\x00\x00\x00\x00\x00\xf0?\x00\x00\x00\x00\x00\x00\x00\x00\x00\x00\x00\x00\x00\x00\x00\x00\x00\x00\x00\x00\x00\x00\x00\x00\x00\x00\x00\x00\x00\x00\xf0?\x00\x00\x00\x00\x00\x00\x00\x00\x00\x00\x00\x00\x00\x00\x00\x00\x00\x00\x00\x00\x00\x00\x00\x00\x00\x00\x00\x00\x00\x00\xf0?'
p823
tp824
bsg58
g59
sg41
(dp825
I4457056336
g788
ssbsg41
(dp826
I4457056400
g785
ssg58
g59
sbsg74
I2
sg75
g81
sg41
(dp827
I4457056528
g0
(g16
g2
Ntp828
Rp829
(dp830
g14
I1
sg20
g0
(g21
g2
Ntp831
Rp832
(dp833
g14
I1
sg25
g26
(g27
(I0
tp834
g29
tp835
Rp836
(I1
(I2
tp837
g36
I00
S'H\xaf\xbc\x9a\xf2\xd7z>H\xaf\xbc\x9a\xf2\xd7z>'
p838
tp839
bsg41
(dp840
I4457056528
g829
ssg43
g26
(g27
(I0
tp841
g29
tp842
Rp843
(I1
(I2
I2
tp844
g36
I00
S'\x00\x00\x00\x00\x00\x00\x00\x00\x00\x00\x00\x00\x00\x00\x00\x00\x00\x00\x00\x00\x00\x00\xf0?\x00\x00\x00\x00\x00\x00\xf0?'
p845
tp846
bsg50
g26
(g27
(I0
tp847
g29
tp848
Rp849
(I1
(I2
I2
tp850
g36
I00
S'\x00\x00\x00\x00\x00\x00\x00\x00\x00\x00\x00\x00\x00\x00\x00\x00\x00\x00\x00\x00\x00\x00\xf0?\x00\x00\x00\x00\x00\x00\xf0?'
p851
tp852
bsg57
I01
sg58
g59
sbsg60
g785
sg50
Nsg41
(dp853
sg58
g59
sbssg58
g59
sbsI4457110992
g0
(g68
g2
Ntp854
Rp855
(dp856
g14
I1
sg72
I2
sg73
g0
(g68
g2
Ntp857
Rp858
(dp859
g14
I1
sg72
I2
sg73
g0
(g79
g2
Ntp860
Rp861
(dp862
g14
I1
sg83
Nsg90
Nsg102
g0
(g21
g2
Ntp863
Rp864
(dp865
g14
I1
sg25
g26
(g27
(I0
tp866
g29
tp867
Rp868
(I1
(I2
tp869
g36
I00
S'H\xaf\xbc\x9a\xf2\xd7z>H\xaf\xbc\x9a\xf2\xd7z>'
p870
tp871
bsg41
(dp872
I4457110800
g861
ssg43
g26
(g27
(I0
tp873
g29
tp874
Rp875
(I1
(I2
I2
tp876
g36
I00
S'\x00\x00\x00\x00\x00\x00\x00\x00\x00\x00\x00\x00\x00\x00\x00\x00\x00\x00\x00\x00\x00\x00\xf0?\x00\x00\x00\x00\x00\x00\xf0?'
p877
tp878
bsg50
g26
(g27
(I0
tp879
g29
tp880
Rp881
(I1
(I2
I2
tp882
g36
I00
S'\x00\x00\x00\x00\x00\x00\x00\x00\x00\x00\x00\x00\x00\x00\x00\x00\x00\x00\x00\x00\x00\x00\xf0?\x00\x00\x00\x00\x00\x00\xf0?'
p883
tp884
bsg57
I01
sg58
g59
sbsg41
(dp885
I4457110928
g858
ssg58
g59
sbsg74
I2
sg75
g0
(g91
g2
Ntp886
Rp887
(dp888
g14
I2
sg90
Nsg83
g26
(g27
(I0
tp889
g29
tp890
Rp891
(I1
(I3
I3
tp892
g36
I00
S'\x00\x00\x00\x00\x00\x00\xf0?\x00\x00\x00\x00\x00\x00\x00\x00\x00\x00\x00\x00\x00\x00\x00\x00\x00\x00\x00\x00\x00\x00\x00\x00\x00\x00\x00\x00\x00\x00\xf0?\x00\x00\x00\x00\x00\x00\x00\x00\x00\x00\x00\x00\x00\x00\x00\x00\x00\x00\x00\x00\x00\x00\x00\x00\x00\x00\x00\x00\x00\x00\xf0?'
p893
tp894
bsg58
g59
sg41
(dp895
I4457110928
g858
ssbsg41
(dp896
I4457110992
g855
ssg58
g59
sbsg74
I2
sg75
g81
sg41
(dp897
I4457111120
g0
(g16
g2
Ntp898
Rp899
(dp900
g14
I1
sg20
g0
(g21
g2
Ntp901
Rp902
(dp903
g14
I1
sg25
g26
(g27
(I0
tp904
g29
tp905
Rp906
(I1
(I2
tp907
g36
I00
S'H\xaf\xbc\x9a\xf2\xd7z>H\xaf\xbc\x9a\xf2\xd7z>'
p908
tp909
bsg41
(dp910
I4457111120
g899
ssg43
g26
(g27
(I0
tp911
g29
tp912
Rp913
(I1
(I2
I2
tp914
g36
I00
S'\x00\x00\x00\x00\x00\x00\x00\x00\x00\x00\x00\x00\x00\x00\x00\x00\x00\x00\x00\x00\x00\x00\xf0?\x00\x00\x00\x00\x00\x00\xf0?'
p915
tp916
bsg50
g26
(g27
(I0
tp917
g29
tp918
Rp919
(I1
(I2
I2
tp920
g36
I00
S'\x00\x00\x00\x00\x00\x00\x00\x00\x00\x00\x00\x00\x00\x00\x00\x00\x00\x00\x00\x00\x00\x00\xf0?\x00\x00\x00\x00\x00\x00\xf0?'
p921
tp922
bsg57
I01
sg58
g59
sbsg60
g855
sg50
Nsg41
(dp923
sg58
g59
sbssg58
g59
sbsI4457057296
g0
(g68
g2
Ntp924
Rp925
(dp926
g14
I1
sg72
I2
sg73
g0
(g68
g2
Ntp927
Rp928
(dp929
g14
I1
sg72
I2
sg73
g0
(g79
g2
Ntp930
Rp931
(dp932
g14
I1
sg83
Nsg90
Nsg102
g0
(g21
g2
Ntp933
Rp934
(dp935
g14
I1
sg25
g26
(g27
(I0
tp936
g29
tp937
Rp938
(I1
(I2
tp939
g36
I00
S'H\xaf\xbc\x9a\xf2\xd7z>H\xaf\xbc\x9a\xf2\xd7z>'
p940
tp941
bsg41
(dp942
I4457057104
g931
ssg43
g26
(g27
(I0
tp943
g29
tp944
Rp945
(I1
(I2
I2
tp946
g36
I00
S'\x00\x00\x00\x00\x00\x00\x00\x00\x00\x00\x00\x00\x00\x00\x00\x00\x00\x00\x00\x00\x00\x00\xf0?\x00\x00\x00\x00\x00\x00\xf0?'
p947
tp948
bsg50
g26
(g27
(I0
tp949
g29
tp950
Rp951
(I1
(I2
I2
tp952
g36
I00
S'\x00\x00\x00\x00\x00\x00\x00\x00\x00\x00\x00\x00\x00\x00\x00\x00\x00\x00\x00\x00\x00\x00\xf0?\x00\x00\x00\x00\x00\x00\xf0?'
p953
tp954
bsg57
I01
sg58
g59
sbsg41
(dp955
I4457057232
g928
ssg58
g59
sbsg74
I2
sg75
g0
(g91
g2
Ntp956
Rp957
(dp958
g14
I2
sg90
Nsg83
g26
(g27
(I0
tp959
g29
tp960
Rp961
(I1
(I3
I3
tp962
g36
I00
S'\x00\x00\x00\x00\x00\x00\xf0?\x00\x00\x00\x00\x00\x00\x00\x00\x00\x00\x00\x00\x00\x00\x00\x00\x00\x00\x00\x00\x00\x00\x00\x00\x00\x00\x00\x00\x00\x00\xf0?\x00\x00\x00\x00\x00\x00\x00\x00\x00\x00\x00\x00\x00\x00\x00\x00\x00\x00\x00\x00\x00\x00\x00\x00\x00\x00\x00\x00\x00\x00\xf0?'
p963
tp964
bsg58
g59
sg41
(dp965
I4457057232
g928
ssbsg41
(dp966
I4457057296
g925
ssg58
g59
sbsg74
I2
sg75
g81
sg41
(dp967
I4457057424
g0
(g16
g2
Ntp968
Rp969
(dp970
g14
I1
sg20
g0
(g21
g2
Ntp971
Rp972
(dp973
g14
I1
sg25
g26
(g27
(I0
tp974
g29
tp975
Rp976
(I1
(I2
tp977
g36
I00
S'H\xaf\xbc\x9a\xf2\xd7z>H\xaf\xbc\x9a\xf2\xd7z>'
p978
tp979
bsg41
(dp980
I4457057424
g969
ssg43
g26
(g27
(I0
tp981
g29
tp982
Rp983
(I1
(I2
I2
tp984
g36
I00
S'\x00\x00\x00\x00\x00\x00\x00\x00\x00\x00\x00\x00\x00\x00\x00\x00\x00\x00\x00\x00\x00\x00\xf0?\x00\x00\x00\x00\x00\x00\xf0?'
p985
tp986
bsg50
g26
(g27
(I0
tp987
g29
tp988
Rp989
(I1
(I2
I2
tp990
g36
I00
S'\x00\x00\x00\x00\x00\x00\x00\x00\x00\x00\x00\x00\x00\x00\x00\x00\x00\x00\x00\x00\x00\x00\xf0?\x00\x00\x00\x00\x00\x00\xf0?'
p991
tp992
bsg57
I01
sg58
g59
sbsg60
g925
sg50
Nsg41
(dp993
sg58
g59
sbssg58
g59
sbsI4457003472
g337
sI4457003536
g341
sI4457003600
g345
sI4457163792
g0
(g68
g2
Ntp994
Rp995
(dp996
g14
I1
sg72
I2
sg73
g0
(g68
g2
Ntp997
Rp998
(dp999
g14
I1
sg72
I2
sg73
g0
(g79
g2
Ntp1000
Rp1001
(dp1002
g14
I1
sg83
Nsg90
Nsg102
g0
(g21
g2
Ntp1003
Rp1004
(dp1005
g14
I1
sg25
g26
(g27
(I0
tp1006
g29
tp1007
Rp1008
(I1
(I2
tp1009
g36
I00
S'H\xaf\xbc\x9a\xf2\xd7z>H\xaf\xbc\x9a\xf2\xd7z>'
p1010
tp1011
bsg41
(dp1012
I4457163600
g1001
ssg43
g26
(g27
(I0
tp1013
g29
tp1014
Rp1015
(I1
(I2
I2
tp1016
g36
I00
S'\x00\x00\x00\x00\x00\x00\x00\x00\x00\x00\x00\x00\x00\x00\x00\x00\x00\x00\x00\x00\x00\x00\xf0?\x00\x00\x00\x00\x00\x00\xf0?'
p1017
tp1018
bsg50
g26
(g27
(I0
tp1019
g29
tp1020
Rp1021
(I1
(I2
I2
tp1022
g36
I00
S'\x00\x00\x00\x00\x00\x00\x00\x00\x00\x00\x00\x00\x00\x00\x00\x00\x00\x00\x00\x00\x00\x00\xf0?\x00\x00\x00\x00\x00\x00\xf0?'
p1023
tp1024
bsg57
I01
sg58
g59
sbsg41
(dp1025
I4457163728
g998
ssg58
g59
sbsg74
I2
sg75
g0
(g91
g2
Ntp1026
Rp1027
(dp1028
g14
I2
sg90
Nsg83
g26
(g27
(I0
tp1029
g29
tp1030
Rp1031
(I1
(I3
I3
tp1032
g36
I00
S'\x00\x00\x00\x00\x00\x00\xf0?\x00\x00\x00\x00\x00\x00\x00\x00\x00\x00\x00\x00\x00\x00\x00\x00\x00\x00\x00\x00\x00\x00\x00\x00\x00\x00\x00\x00\x00\x00\xf0?\x00\x00\x00\x00\x00\x00\x00\x00\x00\x00\x00\x00\x00\x00\x00\x00\x00\x00\x00\x00\x00\x00\x00\x00\x00\x00\x00\x00\x00\x00\xf0?'
p1033
tp1034
bsg58
g59
sg41
(dp1035
I4457163728
g998
ssbsg41
(dp1036
I4457163792
g995
ssg58
g59
sbsg74
I2
sg75
g81
sg41
(dp1037
I4457163920
g0
(g16
g2
Ntp1038
Rp1039
(dp1040
g14
I1
sg20
g0
(g21
g2
Ntp1041
Rp1042
(dp1043
g14
I1
sg25
g26
(g27
(I0
tp1044
g29
tp1045
Rp1046
(I1
(I2
tp1047
g36
I00
S'H\xaf\xbc\x9a\xf2\xd7z>H\xaf\xbc\x9a\xf2\xd7z>'
p1048
tp1049
bsg41
(dp1050
I4457163920
g1039
ssg43
g26
(g27
(I0
tp1051
g29
tp1052
Rp1053
(I1
(I2
I2
tp1054
g36
I00
S'\x00\x00\x00\x00\x00\x00\x00\x00\x00\x00\x00\x00\x00\x00\x00\x00\x00\x00\x00\x00\x00\x00\xf0?\x00\x00\x00\x00\x00\x00\xf0?'
p1055
tp1056
bsg50
g26
(g27
(I0
tp1057
g29
tp1058
Rp1059
(I1
(I2
I2
tp1060
g36
I00
S'\x00\x00\x00\x00\x00\x00\x00\x00\x00\x00\x00\x00\x00\x00\x00\x00\x00\x00\x00\x00\x00\x00\xf0?\x00\x00\x00\x00\x00\x00\xf0?'
p1061
tp1062
bsg57
I01
sg58
g59
sbsg60
g995
sg50
Nsg41
(dp1063
sg58
g59
sbssg58
g59
sbsI4443535184
g0
(g68
g2
Ntp1064
Rp1065
(dp1066
g14
I1
sg72
I2
sg73
g0
(g68
g2
Ntp1067
Rp1068
(dp1069
g14
I1
sg72
I2
sg73
g0
(g79
g2
Ntp1070
Rp1071
(dp1072
g14
I1
sg83
Nsg90
Nsg102
g0
(g21
g2
Ntp1073
Rp1074
(dp1075
g14
I1
sg25
g26
(g27
(I0
tp1076
g29
tp1077
Rp1078
(I1
(I2
tp1079
g36
I00
S'H\xaf\xbc\x9a\xf2\xd7z>H\xaf\xbc\x9a\xf2\xd7z>'
p1080
tp1081
bsg41
(dp1082
I4457054416
g1071
ssg43
g26
(g27
(I0
tp1083
g29
tp1084
Rp1085
(I1
(I2
I2
tp1086
g36
I00
S'\x00\x00\x00\x00\x00\x00\x00\x00\x00\x00\x00\x00\x00\x00\x00\x00\x00\x00\x00\x00\x00\x00\xf0?\x00\x00\x00\x00\x00\x00\xf0?'
p1087
tp1088
bsg50
g26
(g27
(I0
tp1089
g29
tp1090
Rp1091
(I1
(I2
I2
tp1092
g36
I00
S'\x00\x00\x00\x00\x00\x00\x00\x00\x00\x00\x00\x00\x00\x00\x00\x00\x00\x00\x00\x00\x00\x00\xf0?\x00\x00\x00\x00\x00\x00\xf0?'
p1093
tp1094
bsg57
I01
sg58
g59
sbsg41
(dp1095
I4443533648
g1068
ssg58
g59
sbsg74
I2
sg75
g0
(g91
g2
Ntp1096
Rp1097
(dp1098
g14
I2
sg90
Nsg83
g26
(g27
(I0
tp1099
g29
tp1100
Rp1101
(I1
(I3
I3
tp1102
g36
I00
S'\x00\x00\x00\x00\x00\x00\xf0?\x00\x00\x00\x00\x00\x00\x00\x00\x00\x00\x00\x00\x00\x00\x00\x00\x00\x00\x00\x00\x00\x00\x00\x00\x00\x00\x00\x00\x00\x00\xf0?\x00\x00\x00\x00\x00\x00\x00\x00\x00\x00\x00\x00\x00\x00\x00\x00\x00\x00\x00\x00\x00\x00\x00\x00\x00\x00\x00\x00\x00\x00\xf0?'
p1103
tp1104
bsg58
g59
sg41
(dp1105
I4443533648
g1068
ssbsg41
(dp1106
I4443535184
g1065
ssg58
g59
sbsg74
I2
sg75
g81
sg41
(dp1107
I4443535248
g0
(g16
g2
Ntp1108
Rp1109
(dp1110
g14
I1
sg20
g0
(g21
g2
Ntp1111
Rp1112
(dp1113
g14
I1
sg25
g26
(g27
(I0
tp1114
g29
tp1115
Rp1116
(I1
(I2
tp1117
g36
I00
S'H\xaf\xbc\x9a\xf2\xd7z>H\xaf\xbc\x9a\xf2\xd7z>'
p1118
tp1119
bsg41
(dp1120
I4443535248
g1109
ssg43
g26
(g27
(I0
tp1121
g29
tp1122
Rp1123
(I1
(I2
I2
tp1124
g36
I00
S'\x00\x00\x00\x00\x00\x00\x00\x00\x00\x00\x00\x00\x00\x00\x00\x00\x00\x00\x00\x00\x00\x00\xf0?\x00\x00\x00\x00\x00\x00\xf0?'
p1125
tp1126
bsg50
g26
(g27
(I0
tp1127
g29
tp1128
Rp1129
(I1
(I2
I2
tp1130
g36
I00
S'\x00\x00\x00\x00\x00\x00\x00\x00\x00\x00\x00\x00\x00\x00\x00\x00\x00\x00\x00\x00\x00\x00\xf0?\x00\x00\x00\x00\x00\x00\xf0?'
p1131
tp1132
bsg57
I01
sg58
g59
sbsg60
g1065
sg50
Nsg41
(dp1133
sg58
g59
sbssg58
g59
sbsI4390073808
g264
sI4457004496
g0
(g68
g2
Ntp1134
Rp1135
(dp1136
g14
I1
sg72
I2
sg73
g0
(g68
g2
Ntp1137
Rp1138
(dp1139
g14
I1
sg72
I2
sg73
g0
(g79
g2
Ntp1140
Rp1141
(dp1142
g14
I1
sg83
Nsg90
Nsg102
g0
(g21
g2
Ntp1143
Rp1144
(dp1145
g14
I1
sg25
g26
(g27
(I0
tp1146
g29
tp1147
Rp1148
(I1
(I2
tp1149
g36
I00
S'H\xaf\xbc\x9a\xf2\xd7z>H\xaf\xbc\x9a\xf2\xd7z>'
p1150
tp1151
bsg41
(dp1152
I4457004368
g1141
ssg43
g26
(g27
(I0
tp1153
g29
tp1154
Rp1155
(I1
(I2
I2
tp1156
g36
I00
S'\x00\x00\x00\x00\x00\x00\x00\x00\x00\x00\x00\x00\x00\x00\x00\x00\x00\x00\x00\x00\x00\x00\xf0?\x00\x00\x00\x00\x00\x00\xf0?'
p1157
tp1158
bsg50
g26
(g27
(I0
tp1159
g29
tp1160
Rp1161
(I1
(I2
I2
tp1162
g36
I00
S'\x00\x00\x00\x00\x00\x00\x00\x00\x00\x00\x00\x00\x00\x00\x00\x00\x00\x00\x00\x00\x00\x00\xf0?\x00\x00\x00\x00\x00\x00\xf0?'
p1163
tp1164
bsg57
I01
sg58
g59
sbsg41
(dp1165
I4457003856
g1138
ssg58
g59
sbsg74
I2
sg75
g0
(g91
g2
Ntp1166
Rp1167
(dp1168
g14
I2
sg90
Nsg83
g26
(g27
(I0
tp1169
g29
tp1170
Rp1171
(I1
(I3
I3
tp1172
g36
I00
S'\x00\x00\x00\x00\x00\x00\xf0?\x00\x00\x00\x00\x00\x00\x00\x00\x00\x00\x00\x00\x00\x00\x00\x00\x00\x00\x00\x00\x00\x00\x00\x00\x00\x00\x00\x00\x00\x00\xf0?\x00\x00\x00\x00\x00\x00\x00\x00\x00\x00\x00\x00\x00\x00\x00\x00\x00\x00\x00\x00\x00\x00\x00\x00\x00\x00\x00\x00\x00\x00\xf0?'
p1173
tp1174
bsg58
g59
sg41
(dp1175
I4457003856
g1138
ssbsg41
(dp1176
I4457004496
g1135
ssg58
g59
sbsg74
I2
sg75
g81
sg41
(dp1177
I4457004560
g0
(g16
g2
Ntp1178
Rp1179
(dp1180
g14
I1
sg20
g0
(g21
g2
Ntp1181
Rp1182
(dp1183
g14
I1
sg25
g26
(g27
(I0
tp1184
g29
tp1185
Rp1186
(I1
(I2
tp1187
g36
I00
S'H\xaf\xbc\x9a\xf2\xd7z>H\xaf\xbc\x9a\xf2\xd7z>'
p1188
tp1189
bsg41
(dp1190
I4457004560
g1179
ssg43
g26
(g27
(I0
tp1191
g29
tp1192
Rp1193
(I1
(I2
I2
tp1194
g36
I00
S'\x00\x00\x00\x00\x00\x00\x00\x00\x00\x00\x00\x00\x00\x00\x00\x00\x00\x00\x00\x00\x00\x00\xf0?\x00\x00\x00\x00\x00\x00\xf0?'
p1195
tp1196
bsg50
g26
(g27
(I0
tp1197
g29
tp1198
Rp1199
(I1
(I2
I2
tp1200
g36
I00
S'\x00\x00\x00\x00\x00\x00\x00\x00\x00\x00\x00\x00\x00\x00\x00\x00\x00\x00\x00\x00\x00\x00\xf0?\x00\x00\x00\x00\x00\x00\xf0?'
p1201
tp1202
bsg57
I01
sg58
g59
sbsg60
g1135
sg50
Nsg41
(dp1203
sg58
g59
sbssg58
g59
sbsI4456922640
g0
(g68
g2
Ntp1204
Rp1205
(dp1206
g14
I1
sg72
I2
sg73
g0
(g68
g2
Ntp1207
Rp1208
(dp1209
g14
I1
sg72
I2
sg73
g0
(g79
g2
Ntp1210
Rp1211
(dp1212
g14
I1
sg83
Nsg90
Nsg102
g0
(g21
g2
Ntp1213
Rp1214
(dp1215
g14
I1
sg25
g26
(g27
(I0
tp1216
g29
tp1217
Rp1218
(I1
(I2
tp1219
g36
I00
S'H\xaf\xbc\x9a\xf2\xd7z>H\xaf\xbc\x9a\xf2\xd7z>'
p1220
tp1221
bsg41
(dp1222
I4456922960
g1211
ssg43
g26
(g27
(I0
tp1223
g29
tp1224
Rp1225
(I1
(I2
I2
tp1226
g36
I00
S'\x00\x00\x00\x00\x00\x00\x00\x00\x00\x00\x00\x00\x00\x00\x00\x00\x00\x00\x00\x00\x00\x00\xf0?\x00\x00\x00\x00\x00\x00\xf0?'
p1227
tp1228
bsg50
g26
(g27
(I0
tp1229
g29
tp1230
Rp1231
(I1
(I2
I2
tp1232
g36
I00
S'\x00\x00\x00\x00\x00\x00\x00\x00\x00\x00\x00\x00\x00\x00\x00\x00\x00\x00\x00\x00\x00\x00\xf0?\x00\x00\x00\x00\x00\x00\xf0?'
p1233
tp1234
bsg57
I01
sg58
g59
sbsg41
(dp1235
I4456923088
g1208
ssg58
g59
sbsg74
I2
sg75
g0
(g91
g2
Ntp1236
Rp1237
(dp1238
g14
I2
sg90
Nsg83
g26
(g27
(I0
tp1239
g29
tp1240
Rp1241
(I1
(I3
I3
tp1242
g36
I00
S'\x00\x00\x00\x00\x00\x00\xf0?\x00\x00\x00\x00\x00\x00\x00\x00\x00\x00\x00\x00\x00\x00\x00\x00\x00\x00\x00\x00\x00\x00\x00\x00\x00\x00\x00\x00\x00\x00\xf0?\x00\x00\x00\x00\x00\x00\x00\x00\x00\x00\x00\x00\x00\x00\x00\x00\x00\x00\x00\x00\x00\x00\x00\x00\x00\x00\x00\x00\x00\x00\xf0?'
p1243
tp1244
bsg58
g59
sg41
(dp1245
I4456923088
g1208
ssbsg41
(dp1246
I4456922640
g1205
ssg58
g59
sbsg74
I2
sg75
g81
sg41
(dp1247
I4456922704
g0
(g16
g2
Ntp1248
Rp1249
(dp1250
g14
I1
sg20
g0
(g21
g2
Ntp1251
Rp1252
(dp1253
g14
I1
sg25
g26
(g27
(I0
tp1254
g29
tp1255
Rp1256
(I1
(I2
tp1257
g36
I00
S'H\xaf\xbc\x9a\xf2\xd7z>H\xaf\xbc\x9a\xf2\xd7z>'
p1258
tp1259
bsg41
(dp1260
I4456922704
g1249
ssg43
g26
(g27
(I0
tp1261
g29
tp1262
Rp1263
(I1
(I2
I2
tp1264
g36
I00
S'\x00\x00\x00\x00\x00\x00\x00\x00\x00\x00\x00\x00\x00\x00\x00\x00\x00\x00\x00\x00\x00\x00\xf0?\x00\x00\x00\x00\x00\x00\xf0?'
p1265
tp1266
bsg50
g26
(g27
(I0
tp1267
g29
tp1268
Rp1269
(I1
(I2
I2
tp1270
g36
I00
S'\x00\x00\x00\x00\x00\x00\x00\x00\x00\x00\x00\x00\x00\x00\x00\x00\x00\x00\x00\x00\x00\x00\xf0?\x00\x00\x00\x00\x00\x00\xf0?'
p1271
tp1272
bsg57
I01
sg58
g59
sbsg60
g1205
sg50
Nsg41
(dp1273
sg58
g59
sbssg58
g59
sbsI4443496016
g0
(cmatplotlib.transforms
BlendedAffine2D
p1274
g2
Ntp1275
Rp1276
(dp1277
g14
I1
sg83
Nsg187
g81
sg188
g0
(cmatplotlib.transforms
IdentityTransform
p1278
g2
Ntp1279
Rp1280
(dp1281
g14
I1
sg90
Nsg58
g59
sg41
(dp1282
I4443496016
g1276
ssbsg90
Nsg58
g59
sg41
(dp1283
sbsI4390076176
g0
(g1274
g2
Ntp1284
Rp1285
(dp1286
g14
I1
sg83
Nsg187
g0
(g1278
g2
Ntp1287
Rp1288
(dp1289
g14
I1
sg90
Nsg58
g59
sg41
(dp1290
I4390076176
g1285
ssbsg188
g81
sg90
Nsg58
g59
sg41
(dp1291
sbsI4457058192
g0
(g68
g2
Ntp1292
Rp1293
(dp1294
g14
I1
sg72
I2
sg73
g0
(g68
g2
Ntp1295
Rp1296
(dp1297
g14
I1
sg72
I2
sg73
g0
(g79
g2
Ntp1298
Rp1299
(dp1300
g14
I1
sg83
Nsg90
Nsg102
g0
(g21
g2
Ntp1301
Rp1302
(dp1303
g14
I1
sg25
g26
(g27
(I0
tp1304
g29
tp1305
Rp1306
(I1
(I2
tp1307
g36
I00
S'H\xaf\xbc\x9a\xf2\xd7z>H\xaf\xbc\x9a\xf2\xd7z>'
p1308
tp1309
bsg41
(dp1310
I4457058000
g1299
ssg43
g26
(g27
(I0
tp1311
g29
tp1312
Rp1313
(I1
(I2
I2
tp1314
g36
I00
S'\x00\x00\x00\x00\x00\x00\x00\x00\x00\x00\x00\x00\x00\x00\x00\x00\x00\x00\x00\x00\x00\x00\xf0?\x00\x00\x00\x00\x00\x00\xf0?'
p1315
tp1316
bsg50
g26
(g27
(I0
tp1317
g29
tp1318
Rp1319
(I1
(I2
I2
tp1320
g36
I00
S'\x00\x00\x00\x00\x00\x00\x00\x00\x00\x00\x00\x00\x00\x00\x00\x00\x00\x00\x00\x00\x00\x00\xf0?\x00\x00\x00\x00\x00\x00\xf0?'
p1321
tp1322
bsg57
I01
sg58
g59
sbsg41
(dp1323
I4457058128
g1296
ssg58
g59
sbsg74
I2
sg75
g0
(g91
g2
Ntp1324
Rp1325
(dp1326
g14
I2
sg90
Nsg83
g26
(g27
(I0
tp1327
g29
tp1328
Rp1329
(I1
(I3
I3
tp1330
g36
I00
S'\x00\x00\x00\x00\x00\x00\xf0?\x00\x00\x00\x00\x00\x00\x00\x00\x00\x00\x00\x00\x00\x00\x00\x00\x00\x00\x00\x00\x00\x00\x00\x00\x00\x00\x00\x00\x00\x00\xf0?\x00\x00\x00\x00\x00\x00\x00\x00\x00\x00\x00\x00\x00\x00\x00\x00\x00\x00\x00\x00\x00\x00\x00\x00\x00\x00\x00\x00\x00\x00\xf0?'
p1331
tp1332
bsg58
g59
sg41
(dp1333
I4457058128
g1296
ssbsg41
(dp1334
I4457058192
g1293
ssg58
g59
sbsg74
I2
sg75
g81
sg41
(dp1335
I4457107536
g0
(g16
g2
Ntp1336
Rp1337
(dp1338
g14
I1
sg20
g0
(g21
g2
Ntp1339
Rp1340
(dp1341
g14
I1
sg25
g26
(g27
(I0
tp1342
g29
tp1343
Rp1344
(I1
(I2
tp1345
g36
I00
S'H\xaf\xbc\x9a\xf2\xd7z>H\xaf\xbc\x9a\xf2\xd7z>'
p1346
tp1347
bsg41
(dp1348
I4457107536
g1337
ssg43
g26
(g27
(I0
tp1349
g29
tp1350
Rp1351
(I1
(I2
I2
tp1352
g36
I00
S'\x00\x00\x00\x00\x00\x00\x00\x00\x00\x00\x00\x00\x00\x00\x00\x00\x00\x00\x00\x00\x00\x00\xf0?\x00\x00\x00\x00\x00\x00\xf0?'
p1353
tp1354
bsg50
g26
(g27
(I0
tp1355
g29
tp1356
Rp1357
(I1
(I2
I2
tp1358
g36
I00
S'\x00\x00\x00\x00\x00\x00\x00\x00\x00\x00\x00\x00\x00\x00\x00\x00\x00\x00\x00\x00\x00\x00\xf0?\x00\x00\x00\x00\x00\x00\xf0?'
p1359
tp1360
bsg57
I01
sg58
g59
sbsg60
g1293
sg50
Nsg41
(dp1361
sg58
g59
sbssg58
g59
sbsI4457164688
g0
(g68
g2
Ntp1362
Rp1363
(dp1364
g14
I1
sg72
I2
sg73
g0
(g68
g2
Ntp1365
Rp1366
(dp1367
g14
I1
sg72
I2
sg73
g0
(g79
g2
Ntp1368
Rp1369
(dp1370
g14
I1
sg83
Nsg90
Nsg102
g0
(g21
g2
Ntp1371
Rp1372
(dp1373
g14
I1
sg25
g26
(g27
(I0
tp1374
g29
tp1375
Rp1376
(I1
(I2
tp1377
g36
I00
S'H\xaf\xbc\x9a\xf2\xd7z>H\xaf\xbc\x9a\xf2\xd7z>'
p1378
tp1379
bsg41
(dp1380
I4457164496
g1369
ssg43
g26
(g27
(I0
tp1381
g29
tp1382
Rp1383
(I1
(I2
I2
tp1384
g36
I00
S'\x00\x00\x00\x00\x00\x00\x00\x00\x00\x00\x00\x00\x00\x00\x00\x00\x00\x00\x00\x00\x00\x00\xf0?\x00\x00\x00\x00\x00\x00\xf0?'
p1385
tp1386
bsg50
g26
(g27
(I0
tp1387
g29
tp1388
Rp1389
(I1
(I2
I2
tp1390
g36
I00
S'\x00\x00\x00\x00\x00\x00\x00\x00\x00\x00\x00\x00\x00\x00\x00\x00\x00\x00\x00\x00\x00\x00\xf0?\x00\x00\x00\x00\x00\x00\xf0?'
p1391
tp1392
bsg57
I01
sg58
g59
sbsg41
(dp1393
I4457164624
g1366
ssg58
g59
sbsg74
I2
sg75
g0
(g91
g2
Ntp1394
Rp1395
(dp1396
g14
I2
sg90
Nsg83
g26
(g27
(I0
tp1397
g29
tp1398
Rp1399
(I1
(I3
I3
tp1400
g36
I00
S'\x00\x00\x00\x00\x00\x00\xf0?\x00\x00\x00\x00\x00\x00\x00\x00\x00\x00\x00\x00\x00\x00\x00\x00\x00\x00\x00\x00\x00\x00\x00\x00\x00\x00\x00\x00\x00\x00\xf0?\x00\x00\x00\x00\x00\x00\x00\x00\x00\x00\x00\x00\x00\x00\x00\x00\x00\x00\x00\x00\x00\x00\x00\x00\x00\x00\x00\x00\x00\x00\xf0?'
p1401
tp1402
bsg58
g59
sg41
(dp1403
I4457164624
g1366
ssbsg41
(dp1404
I4457164688
g1363
ssg58
g59
sbsg74
I2
sg75
g81
sg41
(dp1405
I4457218128
g0
(g16
g2
Ntp1406
Rp1407
(dp1408
g14
I1
sg20
g0
(g21
g2
Ntp1409
Rp1410
(dp1411
g14
I1
sg25
g26
(g27
(I0
tp1412
g29
tp1413
Rp1414
(I1
(I2
tp1415
g36
I00
S'H\xaf\xbc\x9a\xf2\xd7z>H\xaf\xbc\x9a\xf2\xd7z>'
p1416
tp1417
bsg41
(dp1418
I4457218128
g1407
ssg43
g26
(g27
(I0
tp1419
g29
tp1420
Rp1421
(I1
(I2
I2
tp1422
g36
I00
S'\x00\x00\x00\x00\x00\x00\x00\x00\x00\x00\x00\x00\x00\x00\x00\x00\x00\x00\x00\x00\x00\x00\xf0?\x00\x00\x00\x00\x00\x00\xf0?'
p1423
tp1424
bsg50
g26
(g27
(I0
tp1425
g29
tp1426
Rp1427
(I1
(I2
I2
tp1428
g36
I00
S'\x00\x00\x00\x00\x00\x00\x00\x00\x00\x00\x00\x00\x00\x00\x00\x00\x00\x00\x00\x00\x00\x00\xf0?\x00\x00\x00\x00\x00\x00\xf0?'
p1429
tp1430
bsg57
I01
sg58
g59
sbsg60
g1363
sg50
Nsg41
(dp1431
sg58
g59
sbssg58
g59
sbsI4443496400
g0
(g1274
g2
Ntp1432
Rp1433
(dp1434
g14
I1
sg83
Nsg187
g0
(g1278
g2
Ntp1435
Rp1436
(dp1437
g14
I1
sg90
Nsg58
g59
sg41
(dp1438
I4443496400
g1433
ssbsg188
g81
sg90
Nsg58
g59
sg41
(dp1439
sbsI4443410640
g0
(g1274
g2
Ntp1440
Rp1441
(dp1442
g14
I1
sg83
Nsg187
g0
(g1278
g2
Ntp1443
Rp1444
(dp1445
g14
I1
sg90
Nsg58
g59
sg41
(dp1446
I4443410640
g1441
ssbsg188
g81
sg90
Nsg58
g59
sg41
(dp1447
sbsI4457218896
g0
(g68
g2
Ntp1448
Rp1449
(dp1450
g14
I1
sg72
I2
sg73
g0
(g68
g2
Ntp1451
Rp1452
(dp1453
g14
I1
sg72
I2
sg73
g0
(g79
g2
Ntp1454
Rp1455
(dp1456
g14
I1
sg83
Nsg90
Nsg102
g0
(g21
g2
Ntp1457
Rp1458
(dp1459
g14
I1
sg25
g26
(g27
(I0
tp1460
g29
tp1461
Rp1462
(I1
(I2
tp1463
g36
I00
S'H\xaf\xbc\x9a\xf2\xd7z>H\xaf\xbc\x9a\xf2\xd7z>'
p1464
tp1465
bsg41
(dp1466
I4457218704
g1455
ssg43
g26
(g27
(I0
tp1467
g29
tp1468
Rp1469
(I1
(I2
I2
tp1470
g36
I00
S'\x00\x00\x00\x00\x00\x00\x00\x00\x00\x00\x00\x00\x00\x00\x00\x00\x00\x00\x00\x00\x00\x00\xf0?\x00\x00\x00\x00\x00\x00\xf0?'
p1471
tp1472
bsg50
g26
(g27
(I0
tp1473
g29
tp1474
Rp1475
(I1
(I2
I2
tp1476
g36
I00
S'\x00\x00\x00\x00\x00\x00\x00\x00\x00\x00\x00\x00\x00\x00\x00\x00\x00\x00\x00\x00\x00\x00\xf0?\x00\x00\x00\x00\x00\x00\xf0?'
p1477
tp1478
bsg57
I01
sg58
g59
sbsg41
(dp1479
I4457218832
g1452
ssg58
g59
sbsg74
I2
sg75
g0
(g91
g2
Ntp1480
Rp1481
(dp1482
g14
I2
sg90
Nsg83
g26
(g27
(I0
tp1483
g29
tp1484
Rp1485
(I1
(I3
I3
tp1486
g36
I00
S'\x00\x00\x00\x00\x00\x00\xf0?\x00\x00\x00\x00\x00\x00\x00\x00\x00\x00\x00\x00\x00\x00\x00\x00\x00\x00\x00\x00\x00\x00\x00\x00\x00\x00\x00\x00\x00\x00\xf0?\x00\x00\x00\x00\x00\x00\x00\x00\x00\x00\x00\x00\x00\x00\x00\x00\x00\x00\x00\x00\x00\x00\x00\x00\x00\x00\x00\x00\x00\x00\xf0?'
p1487
tp1488
bsg58
g59
sg41
(dp1489
I4457218832
g1452
ssbsg41
(dp1490
I4457218896
g1449
ssg58
g59
sbsg74
I2
sg75
g81
sg41
(dp1491
I4457219024
g0
(g16
g2
Ntp1492
Rp1493
(dp1494
g14
I1
sg20
g0
(g21
g2
Ntp1495
Rp1496
(dp1497
g14
I1
sg25
g26
(g27
(I0
tp1498
g29
tp1499
Rp1500
(I1
(I2
tp1501
g36
I00
S'H\xaf\xbc\x9a\xf2\xd7z>H\xaf\xbc\x9a\xf2\xd7z>'
p1502
tp1503
bsg41
(dp1504
I4457219024
g1493
ssg43
g26
(g27
(I0
tp1505
g29
tp1506
Rp1507
(I1
(I2
I2
tp1508
g36
I00
S'\x00\x00\x00\x00\x00\x00\x00\x00\x00\x00\x00\x00\x00\x00\x00\x00\x00\x00\x00\x00\x00\x00\xf0?\x00\x00\x00\x00\x00\x00\xf0?'
p1509
tp1510
bsg50
g26
(g27
(I0
tp1511
g29
tp1512
Rp1513
(I1
(I2
I2
tp1514
g36
I00
S'\x00\x00\x00\x00\x00\x00\x00\x00\x00\x00\x00\x00\x00\x00\x00\x00\x00\x00\x00\x00\x00\x00\xf0?\x00\x00\x00\x00\x00\x00\xf0?'
p1515
tp1516
bsg57
I01
sg58
g59
sbsg60
g1449
sg50
Nsg41
(dp1517
sg58
g59
sbssg58
g59
sbsI4457054608
g0
(g68
g2
Ntp1518
Rp1519
(dp1520
g14
I1
sg72
I2
sg73
g0
(g68
g2
Ntp1521
Rp1522
(dp1523
g14
I1
sg72
I2
sg73
g0
(g79
g2
Ntp1524
Rp1525
(dp1526
g14
I1
sg83
Nsg90
Nsg102
g0
(g21
g2
Ntp1527
Rp1528
(dp1529
g14
I1
sg25
g26
(g27
(I0
tp1530
g29
tp1531
Rp1532
(I1
(I2
tp1533
g36
I00
S'H\xaf\xbc\x9a\xf2\xd7z>H\xaf\xbc\x9a\xf2\xd7z>'
p1534
tp1535
bsg41
(dp1536
I4443410896
g1525
ssg43
g26
(g27
(I0
tp1537
g29
tp1538
Rp1539
(I1
(I2
I2
tp1540
g36
I00
S'\x00\x00\x00\x00\x00\x00\x00\x00\x00\x00\x00\x00\x00\x00\x00\x00\x00\x00\x00\x00\x00\x00\xf0?\x00\x00\x00\x00\x00\x00\xf0?'
p1541
tp1542
bsg50
g26
(g27
(I0
tp1543
g29
tp1544
Rp1545
(I1
(I2
I2
tp1546
g36
I00
S'\x00\x00\x00\x00\x00\x00\x00\x00\x00\x00\x00\x00\x00\x00\x00\x00\x00\x00\x00\x00\x00\x00\xf0?\x00\x00\x00\x00\x00\x00\xf0?'
p1547
tp1548
bsg57
I01
sg58
g59
sbsg41
(dp1549
I4457054544
g1522
ssg58
g59
sbsg74
I2
sg75
g0
(g91
g2
Ntp1550
Rp1551
(dp1552
g14
I2
sg90
Nsg83
g26
(g27
(I0
tp1553
g29
tp1554
Rp1555
(I1
(I3
I3
tp1556
g36
I00
S'\x00\x00\x00\x00\x00\x00\xf0?\x00\x00\x00\x00\x00\x00\x00\x00\x00\x00\x00\x00\x00\x00\x00\x00\x00\x00\x00\x00\x00\x00\x00\x00\x00\x00\x00\x00\x00\x00\xf0?\x00\x00\x00\x00\x00\x00\x00\x00\x00\x00\x00\x00\x00\x00\x00\x00\x00\x00\x00\x00\x00\x00\x00\x00\x00\x00\x00\x00\x00\x00\xf0?'
p1557
tp1558
bsg58
g59
sg41
(dp1559
I4457054544
g1522
ssbsg41
(dp1560
I4457054608
g1519
ssg58
g59
sbsg74
I2
sg75
g81
sg41
(dp1561
I4457054736
g0
(g16
g2
Ntp1562
Rp1563
(dp1564
g14
I1
sg20
g0
(g21
g2
Ntp1565
Rp1566
(dp1567
g14
I1
sg25
g26
(g27
(I0
tp1568
g29
tp1569
Rp1570
(I1
(I2
tp1571
g36
I00
S'H\xaf\xbc\x9a\xf2\xd7z>H\xaf\xbc\x9a\xf2\xd7z>'
p1572
tp1573
bsg41
(dp1574
I4457054736
g1563
ssg43
g26
(g27
(I0
tp1575
g29
tp1576
Rp1577
(I1
(I2
I2
tp1578
g36
I00
S'\x00\x00\x00\x00\x00\x00\x00\x00\x00\x00\x00\x00\x00\x00\x00\x00\x00\x00\x00\x00\x00\x00\xf0?\x00\x00\x00\x00\x00\x00\xf0?'
p1579
tp1580
bsg50
g26
(g27
(I0
tp1581
g29
tp1582
Rp1583
(I1
(I2
I2
tp1584
g36
I00
S'\x00\x00\x00\x00\x00\x00\x00\x00\x00\x00\x00\x00\x00\x00\x00\x00\x00\x00\x00\x00\x00\x00\xf0?\x00\x00\x00\x00\x00\x00\xf0?'
p1585
tp1586
bsg57
I01
sg58
g59
sbsg60
g1519
sg50
Nsg41
(dp1587
sg58
g59
sbssg58
g59
sbsI4457161104
g0
(g68
g2
Ntp1588
Rp1589
(dp1590
g14
I1
sg72
I2
sg73
g0
(g68
g2
Ntp1591
Rp1592
(dp1593
g14
I1
sg72
I2
sg73
g0
(g79
g2
Ntp1594
Rp1595
(dp1596
g14
I1
sg83
Nsg90
Nsg102
g0
(g21
g2
Ntp1597
Rp1598
(dp1599
g14
I1
sg25
g26
(g27
(I0
tp1600
g29
tp1601
Rp1602
(I1
(I2
tp1603
g36
I00
S'H\xaf\xbc\x9a\xf2\xd7z>H\xaf\xbc\x9a\xf2\xd7z>'
p1604
tp1605
bsg41
(dp1606
I4457160912
g1595
ssg43
g26
(g27
(I0
tp1607
g29
tp1608
Rp1609
(I1
(I2
I2
tp1610
g36
I00
S'\x00\x00\x00\x00\x00\x00\x00\x00\x00\x00\x00\x00\x00\x00\x00\x00\x00\x00\x00\x00\x00\x00\xf0?\x00\x00\x00\x00\x00\x00\xf0?'
p1611
tp1612
bsg50
g26
(g27
(I0
tp1613
g29
tp1614
Rp1615
(I1
(I2
I2
tp1616
g36
I00
S'\x00\x00\x00\x00\x00\x00\x00\x00\x00\x00\x00\x00\x00\x00\x00\x00\x00\x00\x00\x00\x00\x00\xf0?\x00\x00\x00\x00\x00\x00\xf0?'
p1617
tp1618
bsg57
I01
sg58
g59
sbsg41
(dp1619
I4457161040
g1592
ssg58
g59
sbsg74
I2
sg75
g0
(g91
g2
Ntp1620
Rp1621
(dp1622
g14
I2
sg90
Nsg83
g26
(g27
(I0
tp1623
g29
tp1624
Rp1625
(I1
(I3
I3
tp1626
g36
I00
S'\x00\x00\x00\x00\x00\x00\xf0?\x00\x00\x00\x00\x00\x00\x00\x00\x00\x00\x00\x00\x00\x00\x00\x00\x00\x00\x00\x00\x00\x00\x00\x00\x00\x00\x00\x00\x00\x00\xf0?\x00\x00\x00\x00\x00\x00\x00\x00\x00\x00\x00\x00\x00\x00\x00\x00\x00\x00\x00\x00\x00\x00\x00\x00\x00\x00\x00\x00\x00\x00\xf0?'
p1627
tp1628
bsg58
g59
sg41
(dp1629
I4457161040
g1592
ssbsg41
(dp1630
I4457161104
g1589
ssg58
g59
sbsg74
I2
sg75
g81
sg41
(dp1631
I4457161232
g0
(g16
g2
Ntp1632
Rp1633
(dp1634
g14
I1
sg20
g0
(g21
g2
Ntp1635
Rp1636
(dp1637
g14
I1
sg25
g26
(g27
(I0
tp1638
g29
tp1639
Rp1640
(I1
(I2
tp1641
g36
I00
S'H\xaf\xbc\x9a\xf2\xd7z>H\xaf\xbc\x9a\xf2\xd7z>'
p1642
tp1643
bsg41
(dp1644
I4457161232
g1633
ssg43
g26
(g27
(I0
tp1645
g29
tp1646
Rp1647
(I1
(I2
I2
tp1648
g36
I00
S'\x00\x00\x00\x00\x00\x00\x00\x00\x00\x00\x00\x00\x00\x00\x00\x00\x00\x00\x00\x00\x00\x00\xf0?\x00\x00\x00\x00\x00\x00\xf0?'
p1649
tp1650
bsg50
g26
(g27
(I0
tp1651
g29
tp1652
Rp1653
(I1
(I2
I2
tp1654
g36
I00
S'\x00\x00\x00\x00\x00\x00\x00\x00\x00\x00\x00\x00\x00\x00\x00\x00\x00\x00\x00\x00\x00\x00\xf0?\x00\x00\x00\x00\x00\x00\xf0?'
p1655
tp1656
bsg57
I01
sg58
g59
sbsg60
g1589
sg50
Nsg41
(dp1657
sg58
g59
sbssg58
g59
sbsI4457219792
g0
(g68
g2
Ntp1658
Rp1659
(dp1660
g14
I1
sg72
I2
sg73
g0
(g68
g2
Ntp1661
Rp1662
(dp1663
g14
I1
sg72
I2
sg73
g0
(g79
g2
Ntp1664
Rp1665
(dp1666
g14
I1
sg83
Nsg90
Nsg102
g0
(g21
g2
Ntp1667
Rp1668
(dp1669
g14
I1
sg25
g26
(g27
(I0
tp1670
g29
tp1671
Rp1672
(I1
(I2
tp1673
g36
I00
S'H\xaf\xbc\x9a\xf2\xd7z>H\xaf\xbc\x9a\xf2\xd7z>'
p1674
tp1675
bsg41
(dp1676
I4457219600
g1665
ssg43
g26
(g27
(I0
tp1677
g29
tp1678
Rp1679
(I1
(I2
I2
tp1680
g36
I00
S'\x00\x00\x00\x00\x00\x00\x00\x00\x00\x00\x00\x00\x00\x00\x00\x00\x00\x00\x00\x00\x00\x00\xf0?\x00\x00\x00\x00\x00\x00\xf0?'
p1681
tp1682
bsg50
g26
(g27
(I0
tp1683
g29
tp1684
Rp1685
(I1
(I2
I2
tp1686
g36
I00
S'\x00\x00\x00\x00\x00\x00\x00\x00\x00\x00\x00\x00\x00\x00\x00\x00\x00\x00\x00\x00\x00\x00\xf0?\x00\x00\x00\x00\x00\x00\xf0?'
p1687
tp1688
bsg57
I01
sg58
g59
sbsg41
(dp1689
I4457219728
g1662
ssg58
g59
sbsg74
I2
sg75
g0
(g91
g2
Ntp1690
Rp1691
(dp1692
g14
I2
sg90
Nsg83
g26
(g27
(I0
tp1693
g29
tp1694
Rp1695
(I1
(I3
I3
tp1696
g36
I00
S'\x00\x00\x00\x00\x00\x00\xf0?\x00\x00\x00\x00\x00\x00\x00\x00\x00\x00\x00\x00\x00\x00\x00\x00\x00\x00\x00\x00\x00\x00\x00\x00\x00\x00\x00\x00\x00\x00\xf0?\x00\x00\x00\x00\x00\x00\x00\x00\x00\x00\x00\x00\x00\x00\x00\x00\x00\x00\x00\x00\x00\x00\x00\x00\x00\x00\x00\x00\x00\x00\xf0?'
p1697
tp1698
bsg58
g59
sg41
(dp1699
I4457219728
g1662
ssbsg41
(dp1700
I4457219792
g1659
ssg58
g59
sbsg74
I2
sg75
g81
sg41
(dp1701
I4457219920
g0
(g16
g2
Ntp1702
Rp1703
(dp1704
g14
I1
sg20
g0
(g21
g2
Ntp1705
Rp1706
(dp1707
g14
I1
sg25
g26
(g27
(I0
tp1708
g29
tp1709
Rp1710
(I1
(I2
tp1711
g36
I00
S'H\xaf\xbc\x9a\xf2\xd7z>H\xaf\xbc\x9a\xf2\xd7z>'
p1712
tp1713
bsg41
(dp1714
I4457219920
g1703
ssg43
g26
(g27
(I0
tp1715
g29
tp1716
Rp1717
(I1
(I2
I2
tp1718
g36
I00
S'\x00\x00\x00\x00\x00\x00\x00\x00\x00\x00\x00\x00\x00\x00\x00\x00\x00\x00\x00\x00\x00\x00\xf0?\x00\x00\x00\x00\x00\x00\xf0?'
p1719
tp1720
bsg50
g26
(g27
(I0
tp1721
g29
tp1722
Rp1723
(I1
(I2
I2
tp1724
g36
I00
S'\x00\x00\x00\x00\x00\x00\x00\x00\x00\x00\x00\x00\x00\x00\x00\x00\x00\x00\x00\x00\x00\x00\xf0?\x00\x00\x00\x00\x00\x00\xf0?'
p1725
tp1726
bsg57
I01
sg58
g59
sbsg60
g1659
sg50
Nsg41
(dp1727
sg58
g59
sbssg58
g59
sbssg58
g59
sbsg41
(dp1728
I4390073680
g70
ssg58
g59
sbsg41
(dp1729
I4390073808
g264
sI4390073872
g185
ssg58
g59
sbssVinput_dims
p1730
I2
sVchild
p1731
g0
(g1274
g2
Ntp1732
Rp1733
(dp1734
g14
I0
sg83
g26
(g27
(I0
tp1735
g29
tp1736
Rp1737
(I1
(I3
I3
tp1738
g36
I00
S'\x00\x00\x00\x00\x00\x00\xf0?\x00\x00\x00\x00\x00\x00\x00\x00\x00\x00\x00\x00\x00\x00\x00\x00\x00\x00\x00\x00\x00\x00\x00\x00\x00\x00\x00\x00\x00\x00\xf0?\x00\x00\x00\x00\x00\x00\x00\x00\x00\x00\x00\x00\x00\x00\x00\x00\x00\x00\x00\x00\x00\x00\x00\x00\x00\x00\x00\x00\x00\x00\xf0?'
p1739
tp1740
bsg187
g0
(g1278
g2
Ntp1741
Rp1742
(dp1743
g14
I1
sg90
Nsg58
g59
sg41
(dp1744
I4457002704
g1733
ssbsg188
g0
(g1278
g2
Ntp1745
Rp1746
(dp1747
g14
I1
sg90
Nsg58
g59
sg41
(dp1748
I4457002704
g1733
ssbsg90
g0
(g91
g2
Ntp1749
Rp1750
(dp1751
g14
I0
sg90
Nsg83
g26
(g27
(I0
tp1752
g29
tp1753
Rp1754
(I1
(I3
I3
tp1755
g36
I00
S'\x00\x00\x00\x00\x00\x00\xf0?\x00\x00\x00\x00\x00\x00\x00\x00\x00\x00\x00\x00\x00\x00\x00\x00\x00\x00\x00\x00\x00\x00\x00\x00\x00\x00\x00\x00\x00\x00\xf0?\x00\x00\x00\x00\x00\x00\x00\x00\x00\x00\x00\x00\x00\x00\x00\x00\x00\x00\x00\x00\x00\x00\x00\x00\x00\x00\x00\x00\x00\x00\xf0?'
p1756
tp1757
bsg58
g59
sg41
(dp1758
sbsg58
g59
sg41
(dp1759
I4390073424
g63
ssbsbsg50
g26
(g27
(I0
tp1760
g29
tp1761
Rp1762
(I1
(I2
I2
tp1763
g36
I00
S'\x00\x00\x00\x00\x00\x00\x00\x00\x00\x00\x00\x00\x00\x00\x00\x00\x00\x00\x00\x00\x00\x00\xf0?\x00\x00\x00\x00\x00\x00\xf0?'
p1764
tp1765
bsg41
(dp1766
I4390072912
g12
ssg58
g59
sbsg83
g26
(g27
(I0
tp1767
g29
tp1768
Rp1769
(I1
(I3
I3
tp1770
g36
I00
S'\x00\x00\x00\x00\x00\x00\xf0?\x00\x00\x00\x00\x00\x00\x00\x00\x00\x00\x00\x00\x00\x00\x00\x80\x00\x00\x00\x00\x00\x00\x00\x00\x00\x00\x00\x00\x00\x00\xf0?\x00\x00\x00\x00\x00\x00\x00\x80\x00\x00\x00\x00\x00\x00\x00\x00\x00\x00\x00\x00\x00\x00\x00\x00\x00\x00\x00\x00\x00\x00\xf0?'
p1771
tp1772
bsg90
g0
(g91
g2
Ntp1773
Rp1774
(dp1775
g14
I0
sg90
Nsg83
g26
(g27
(I0
tp1776
g29
tp1777
Rp1778
(I1
(I3
I3
tp1779
g36
I00
S'\x00\x00\x00\x00\x00\x00\xf0?\x00\x00\x00\x00\x00\x00\x00\x00\x00\x00\x00\x00\x00\x00\x00\x00\x00\x00\x00\x00\x00\x00\x00\x00\x00\x00\x00\x00\x00\x00\xf0?\x00\x00\x00\x00\x00\x00\x00\x00\x00\x00\x00\x00\x00\x00\x00\x00\x00\x00\x00\x00\x00\x00\x00\x00\x00\x00\x00\x00\x00\x00\xf0?'
p1780
tp1781
bsg58
g59
sg41
(dp1782
sbsg58
g59
sg41
(dp1783
I4390073616
g77
ssbsS'_get_patches_for_fill'
p1784
g0
(cmatplotlib.axes._base
_process_plot_var_args
p1785
g2
Ntp1786
Rp1787
(dp1788
Vaxes
p1789
g7
sVcommand
p1790
Vfill
p1791
sbsS'_xcid'
p1792
I1
sS'_label'
p1793
V
p1794
sS'legend_'
p1795
NsS'texts'
p1796
(lp1797
sS'_frameon'
p1798
I01
sS'_autoscaleYon'
p1799
I01
sS'_hold'
p1800
I01
sS'artists'
p1801
(lp1802
sS'_clipon'
p1803
I01
sS'tables'
p1804
(lp1805
sS'patches'
p1806
(lp1807
sS'title'
p1808
g0
(cmatplotlib.text
Text
p1809
g2
Ntp1810
Rp1811
(dp1812
g1793
g59
sS'_visible'
p1813
I01
sS'figure'
p1814
g0
(cmatplotlib.figure
Figure
p1815
g2
Ntp1816
Rp1817
(dp1818
g1793
g59
sg1813
I01
sg1814
NsS'stale_callback'
p1819
NsS'_rasterized'
p1820
Nsg1796
(lp1821
sg1800
I01
sg1801
(lp1822
sS'_path_effects'
p1823
(lp1824
sS'frameon'
p1825
I01
sg1803
I01
sV__mpl_version__
p1826
S'1.5.1'
p1827
sS'_clippath'
p1828
NsS'_contains'
p1829
NsS'_tight_parameters'
p1830
(dp1831
sS'_mouseover'
p1832
I00
sS'_animated'
p1833
I00
sS'_propobservers'
p1834
(dp1835
sS'eventson'
p1836
I00
sS'_picker'
p1837
NsS'_remove_method'
p1838
NsS'figurePatch'
p1839
g0
(cmatplotlib.patches
Rectangle
p1840
g2
Ntp1841
Rp1842
(dp1843
g1793
g59
sS'_width'
p1844
F1.0
sS'_fill'
p1845
I01
sg1814
g1817
sg1813
I01
sg1819
NsS'_agg_filter'
p1846
Nsg1823
g1824
sS'_gid'
p1847
Nsg1803
I01
sS'_combined_transform'
p1848
g0
(g1278
g2
Ntp1849
Rp1850
(dp1851
g14
I1
sg90
Nsg58
g59
sg41
(dp1852
sbsS'_edgecolor'
p1853
(F1.0
F1.0
F1.0
F1.0
tp1854
sg1828
Nsg187
F0.0
sg188
F0.0
sS'_sketch'
p1855
Nsg1829
Nsg1820
Nsg1832
I00
sg1833
I00
sg1834
(dp1856
sS'_rect_transform'
p1857
g0
(g1278
g2
Ntp1858
Rp1859
(dp1860
g14
I1
sg90
Nsg58
g59
sg41
(dp1861
sbsg1836
I00
sS'_hatch'
p1862
NsS'_stale'
p1863
I01
sS'_linewidth'
p1864
F0.0
sS'clipbox'
p1865
NsS'_height'
p1866
F1.0
sg1837
NsS'_antialiased'
p1867
I00
sS'_original_facecolor'
p1868
V0.75
p1869
sS'_snap'
p1870
NsS'_facecolor'
p1871
(F0.75
F0.75
F0.75
F1.0
tp1872
sS'_joinstyle'
p1873
Vmiter
p1874
sS'_linestyle'
p1875
Vsolid
p1876
sS'_original_edgecolor'
p1877
Vw
p1878
sS'_oid'
p1879
I0
sS'_transformSet'
p1880
I01
sS'_angle'
p1881
F0.0
sS'_alpha'
p1882
Nsg60
g129
sS'_capstyle'
p1883
Vbutt
p1884
sS'_url'
p1885
NsS'_axes'
p1886
Nsg1838
Nsbsg1846
Nsg1865
NsV_restore_to_pylab
p1887
I01
sS'images'
p1888
(lp1889
sS'_suptitle'
p1890
NsS'dpi_scale_trans'
p1891
g163
sS'number'
p1892
I1
sS'callbacks'
p1893
g0
(cmatplotlib.cbook
CallbackRegistry
p1894
g2
Ntp1895
Rp1896
sg1870
NsS'_tight'
p1897
I00
sg1863
I01
sS'bbox'
p1898
g138
sg1855
Nsg1879
I0
sg1806
(lp1899
sS'legends'
p1900
(lp1901
sS'suppressComposite'
p1902
Nsg1880
I00
sg1882
NsS'_axstack'
p1903
g0
(cmatplotlib.figure
AxesStack
p1904
g2
Ntp1905
Rp1906
(dp1907
S'_default'
p1908
NsS'_elements'
p1909
(lp1910
(((I1
I1
I1
tp1911
(ttp1912
(I1
g7
tp1913
tp1914
asS'_ind'
p1915
I1
sS'_pos'
p1916
I0
sbsg60
NsS'lines'
p1917
(lp1918
sS'patch'
p1919
g1842
sS'subplotpars'
p1920
g0
(cmatplotlib.figure
SubplotParams
p1921
g2
Ntp1922
Rp1923
(dp1924
S'right'
p1925
F0.9
sS'bottom'
p1926
F0.1
sS'top'
p1927
F0.9
sS'wspace'
p1928
F0.2
sS'validate'
p1929
I01
sS'hspace'
p1930
F0.2
sS'left'
p1931
F0.125
sbsg1847
Nsg1885
NsS'bbox_inches'
p1932
g141
sS'transFigure'
p1933
g129
sS'_dpi'
p1934
F80.0
sbsg1819
NsS'_fontproperties'
p1935
g0
(cmatplotlib.font_manager
FontProperties
p1936
g2
Ntp1937
Rp1938
(dp1939
S'_family'
p1940
(lp1941
Vsans-serif
p1942
asS'_file'
p1943
NsS'_variant'
p1944
Vnormal
p1945
sS'_slant'
p1946
g1945
sS'_size'
p1947
Vlarge
p1948
sS'_weight'
p1949
I400
sS'_stretch'
p1950
g1945
sbsg1846
Nsg1823
g1824
sS'_multialignment'
p1951
Nsg1803
I01
sg1828
Nsg187
F1.0
sg188
F0.5
sg1829
Nsg1820
Nsg1832
I00
sg1833
I00
sg1834
(dp1952
sS'_renderer'
p1953
Nsg1836
I00
sg1886
g7
sg1865
Nsg1885
NsS'_rotation_mode'
p1954
Nsg1837
Nsg1870
Nsg1863
I01
sS'_verticalalignment'
p1955
Vbaseline
p1956
sS'_text'
p1957
V
p1958
sS'_bbox_patch'
p1959
Nsg1855
Nsg1879
I0
sS'_rotation'
p1960
Nsg1880
I01
sg1882
NsS'_linespacing'
p1961
F1.2
sg60
g337
sS'_usetex'
p1962
NsS'_wrap'
p1963
I00
sg1847
NsS'_color'
p1964
Vk
p1965
sS'_horizontalalignment'
p1966
Vcenter
p1967
sg1838
NsbsS'_current_image'
p1968
g0
(cmatplotlib.collections
PathCollection
p1969
g2
Ntp1970
Rp1971
(dp1972
g1793
V_collection0
p1973
sS'_facecolors_original'
p1974
(lp1975
S'r'
p1976
ag29
aS'g'
p1977
asg1813
I01
sg1814
g1817
sS'_linestyles'
p1978
(lp1979
(NNtp1980
asS'_offset_position'
p1981
Vscreen
p1982
sg1819
Nsg1846
NsS'callbacksSM'
p1983
g0
(g1894
g2
Ntp1984
Rp1985
sg1823
NsS'_offsets'
p1986
g26
(g27
(I0
tp1987
g29
tp1988
Rp1989
(I1
(I3
I2
tp1990
g33
(S'i8'
p1991
I0
I1
tp1992
Rp1993
(I3
S'<'
p1994
NNNI-1
I-1
I0
tp1995
bI00
S'\x01\x00\x00\x00\x00\x00\x00\x00\x04\x00\x00\x00\x00\x00\x00\x00\x02\x00\x00\x00\x00\x00\x00\x00\x05\x00\x00\x00\x00\x00\x00\x00\x03\x00\x00\x00\x00\x00\x00\x00\x06\x00\x00\x00\x00\x00\x00\x00'
p1996
tp1997
bsS'_paths'
p1998
(g0
(cmatplotlib.path
Path
p1999
g2
Ntp2000
Rp2001
(dp2002
S'_should_simplify'
p2003
I00
sS'_codes'
p2004
g26
(g27
(I0
tp2005
g29
tp2006
Rp2007
(I1
(I26
tp2008
g33
(S'u1'
p2009
I0
I1
tp2010
Rp2011
(I3
S'|'
p2012
NNNI-1
I-1
I0
tp2013
bI00
S'\x01\x04\x04\x04\x04\x04\x04\x04\x04\x04\x04\x04\x04\x04\x04\x04\x04\x04\x04\x04\x04\x04\x04\x04\x04O'
p2014
tp2015
bsS'_vertices'
p2016
g26
(g27
(I0
tp2017
g29
tp2018
Rp2019
(I1
(I26
I2
tp2020
g36
I00
S'\x00\x00\x00\x00\x00\x00\x00\x00\x00\x00\x00\x00\x00\x00\xe0\xbfr\x0fSl\x16\xf9\xc0?\x00\x00\x00\x00\x00\x00\xe0\xbf\x89\xc9\x15\xf7e\xa0\xd0?\x11\xae\xe8\xd5\xd6\xa0\xdc\xbf\xcd;\x7ff\x9e\xa0\xd6?\xcd;\x7ff\x9e\xa0\xd6\xbf\x11\xae\xe8\xd5\xd6\xa0\xdc?\x89\xc9\x15\xf7e\xa0\xd0\xbf\x00\x00\x00\x00\x00\x00\xe0?r\x0fSl\x16\xf9\xc0\xbf\x00\x00\x00\x00\x00\x00\xe0?\x00\x00\x00\x00\x00\x00\x00\x00\x00\x00\x00\x00\x00\x00\xe0?r\x0fSl\x16\xf9\xc0?\x11\xae\xe8\xd5\xd6\xa0\xdc?\x89\xc9\x15\xf7e\xa0\xd0?\xcd;\x7ff\x9e\xa0\xd6?\xcd;\x7ff\x9e\xa0\xd6?\x89\xc9\x15\xf7e\xa0\xd0?\x11\xae\xe8\xd5\xd6\xa0\xdc?r\x0fSl\x16\xf9\xc0?\x00\x00\x00\x00\x00\x00\xe0?\x00\x00\x00\x00\x00\x00\x00\x00\x00\x00\x00\x00\x00\x00\xe0?r\x0fSl\x16\xf9\xc0\xbf\x00\x00\x00\x00\x00\x00\xe0?\x89\xc9\x15\xf7e\xa0\xd0\xbf\x11\xae\xe8\xd5\xd6\xa0\xdc?\xcd;\x7ff\x9e\xa0\xd6\xbf\xcd;\x7ff\x9e\xa0\xd6?\x11\xae\xe8\xd5\xd6\xa0\xdc\xbf\x89\xc9\x15\xf7e\xa0\xd0?\x00\x00\x00\x00\x00\x00\xe0\xbfr\x0fSl\x16\xf9\xc0?\x00\x00\x00\x00\x00\x00\xe0\xbf\x00\x00\x00\x00\x00\x00\x00\x00\x00\x00\x00\x00\x00\x00\xe0\xbfr\x0fSl\x16\xf9\xc0\xbf\x11\xae\xe8\xd5\xd6\xa0\xdc\xbf\x89\xc9\x15\xf7e\xa0\xd0\xbf\xcd;\x7ff\x9e\xa0\xd6\xbf\xcd;\x7ff\x9e\xa0\xd6\xbf\x89\xc9\x15\xf7e\xa0\xd0\xbf\x11\xae\xe8\xd5\xd6\xa0\xdc\xbfr\x0fSl\x16\xf9\xc0\xbf\x00\x00\x00\x00\x00\x00\xe0\xbf\x00\x00\x00\x00\x00\x00\x00\x00\x00\x00\x00\x00\x00\x00\xe0\xbf\x00\x00\x00\x00\x00\x00\x00\x00\x00\x00\x00\x00\x00\x00\xe0\xbf'
p2021
tp2022
bsS'_readonly'
p2023
I00
sS'_simplify_threshold'
p2024
F0.1111111111111111
sS'_interpolation_steps'
p2025
I1
sS'_has_nonfinite'
p2026
I00
sbtp2027
sg1803
I01
sS'_A'
p2028
NsS'_urls'
p2029
(lp2030
NasS'_sizes'
p2031
g26
(g27
(I0
tp2032
g29
tp2033
Rp2034
(I1
(I1
tp2035
g1993
I00
S'\x14\x00\x00\x00\x00\x00\x00\x00'
p2036
tp2037
bsS'_transforms'
p2038
g26
(g27
(I0
tp2039
g29
tp2040
Rp2041
(I1
(I1
I3
I3
tp2042
g36
I00
S'\xa8\xf4\x97\x9bw\xe3\x11@\x00\x00\x00\x00\x00\x00\x00\x00\x00\x00\x00\x00\x00\x00\x00\x00\x00\x00\x00\x00\x00\x00\x00\x00\xa8\xf4\x97\x9bw\xe3\x11@\x00\x00\x00\x00\x00\x00\x00\x00\x00\x00\x00\x00\x00\x00\x00\x00\x00\x00\x00\x00\x00\x00\x00\x00\x00\x00\x00\x00\x00\x00\xf0?'
p2043
tp2044
bsg1828
Nsg1829
Nsg1820
Nsg1832
I00
sS'_facecolors'
p2045
g26
(g27
(I0
tp2046
g29
tp2047
Rp2048
(I1
(I3
I4
tp2049
g36
I00
S'\x00\x00\x00\x00\x00\x00\xf0?\x00\x00\x00\x00\x00\x00\x00\x00\x00\x00\x00\x00\x00\x00\x00\x00\x00\x00\x00\x00\x00\x00\xf0?\x00\x00\x00\x00\x00\x00\x00\x00\x00\x00\x00\x00\x00\x00\x00\x00\x00\x00\x00\x00\x00\x00\xf0?\x00\x00\x00\x00\x00\x00\xf0?\x00\x00\x00\x00\x00\x00\x00\x00\x00\x00\x00\x00\x00\x00\xe0?\x00\x00\x00\x00\x00\x00\x00\x00\x00\x00\x00\x00\x00\x00\xf0?'
p2050
tp2051
bsS'_uniform_offsets'
p2052
Nsg1833
I00
sg1834
(dp2053
sS'_antialiaseds'
p2054
(I01
tp2055
sg1836
I00
sS'norm'
p2056
g0
(cmatplotlib.colors
Normalize
p2057
g2
Ntp2058
Rp2059
(dp2060
S'vmax'
p2061
NsS'clip'
p2062
I00
sS'vmin'
p2063
Nsbsg1862
NsS'_edgecolors'
p2064
g26
(g27
(I0
tp2065
g29
tp2066
Rp2067
(I1
(I3
I4
tp2068
g36
I00
S'\x00\x00\x00\x00\x00\x00\xf0?\x00\x00\x00\x00\x00\x00\x00\x00\x00\x00\x00\x00\x00\x00\x00\x00\x00\x00\x00\x00\x00\x00\xf0?\x00\x00\x00\x00\x00\x00\x00\x00\x00\x00\x00\x00\x00\x00\x00\x00\x00\x00\x00\x00\x00\x00\xf0?\x00\x00\x00\x00\x00\x00\xf0?\x00\x00\x00\x00\x00\x00\x00\x00\x00\x00\x00\x00\x00\x00\xe0?\x00\x00\x00\x00\x00\x00\x00\x00\x00\x00\x00\x00\x00\x00\xf0?'
p2069
tp2070
bsg1865
g1249
sS'_pickradius'
p2071
F5.0
sg1837
NsS'update_dict'
p2072
(dp2073
Varray
p2074
I00
ssg1870
Nsg1863
I01
sS'_linewidths'
p2075
(F1.0
tp2076
sg1855
Nsg1879
I0
sS'_is_stroked'
p2077
I01
sS'_is_filled'
p2078
I01
sg1880
I01
sS'_transOffset'
p2079
g70
sg1882
Nsg60
g0
(g1278
g2
Ntp2080
Rp2081
(dp2082
g14
I1
sg90
Nsg58
g59
sg41
(dp2083
sbsS'_edgecolors_original'
p2084
g1975
sS'colorbar'
p2085
NsS'cmap'
p2086
g0
(cmatplotlib.colors
LinearSegmentedColormap
p2087
g2
Ntp2088
Rp2089
(dp2090
S'_gamma'
p2091
F1.0
sS'_i_bad'
p2092
I258
sS'_rgba_over'
p2093
NsS'name'
p2094
Vjet
p2095
sS'_i_under'
p2096
I256
sS'_i_over'
p2097
I257
sS'N'
p2098
I256
sS'_segmentdata'
p2099
(dp2100
Vblue
p2101
((F0.0
F0.5
F0.5
tp2102
(F0.11
I1
I1
tp2103
(F0.34
I1
I1
tp2104
(F0.65
I0
I0
tp2105
(I1
I0
I0
tp2106
tp2107
sVgreen
p2108
((F0.0
I0
I0
tp2109
(F0.125
I0
I0
tp2110
(F0.375
I1
I1
tp2111
(F0.64
I1
I1
tp2112
(F0.91
I0
I0
tp2113
(I1
I0
I0
tp2114
tp2115
sVred
p2116
((F0.0
I0
I0
tp2117
(F0.35
I0
I0
tp2118
(F0.66
I1
I1
tp2119
(F0.89
I1
I1
tp2120
(I1
F0.5
F0.5
tp2121
tp2122
ssS'_rgba_under'
p2123
NsS'_rgba_bad'
p2124
(F0.0
F0.0
F0.0
F0.0
tp2125
sS'monochrome'
p2126
I00
sS'colorbar_extend'
p2127
I00
sS'_isinit'
p2128
I00
sbsS'zorder'
p2129
I1
sg1847
Nsg1885
Nsg1886
g7
sg1838
NsbsS'mouseover_set'
p2130
c__builtin__
set
p2131
((lp2132
tp2133
Rp2134
sg1820
NsS'_cursorProps'
p2135
(I1
(F0.0
F0.0
F0.0
F1.0
tp2136
tp2137
sS'numRows'
p2138
I1
sS'collections'
p2139
(lp2140
g1971
asg1886
g7
sg1834
(dp2141
sg1836
I00
sS'containers'
p2142
(lp2143
sg1833
I00
sg1865
NsS'_get_lines'
p2144
g0
(g1785
g2
Ntp2145
Rp2146
(dp2147
g1789
g7
sg1790
Vplot
p2148
sbsS'_aspect'
p2149
Vauto
p2150
sS'fmt_xdata'
p2151
Nsg1893
g0
(g1894
g2
Ntp2152
Rp2153
sg1870
NsS'_anchor'
p2154
VC
p2155
sg1863
I01
sg1898
g104
sS'ignore_existing_data_limits'
p2156
I00
sg1855
Nsg1879
I0
sg1880
I00
sS'_left_title'
p2157
g0
(g1809
g2
Ntp2158
Rp2159
(dp2160
g1793
g59
sg1813
I01
sg1814
g1817
sg1819
Nsg1935
g0
(g1936
g2
Ntp2161
Rp2162
(dp2163
g1940
g1941
sg1943
Nsg1944
g1945
sg1946
g1945
sg1947
g1948
sg1949
I400
sg1950
g1945
sbsg1846
Nsg1823
g1824
sg1951
Nsg1803
I01
sg1828
Nsg187
F1.0
sg188
F0.0
sg1829
Nsg1820
Nsg1832
I00
sg1833
I00
sg1834
(dp2164
sg1953
Nsg1836
I00
sg1886
g7
sg1865
Nsg1885
Nsg1954
Nsg1837
Nsg1870
Nsg1863
I01
sg1955
g1956
sg1957
V
p2165
sg1959
Nsg1855
Nsg1879
I0
sg1960
Nsg1880
I01
sg1882
Nsg1961
F1.2
sg60
g341
sg1962
Nsg1963
I00
sg1847
Nsg1964
g1965
sg1966
Vleft
p2166
sg1838
NsbsS'_right_title'
p2167
g0
(g1809
g2
Ntp2168
Rp2169
(dp2170
g1793
g59
sg1813
I01
sg1814
g1817
sg1819
Nsg1935
g0
(g1936
g2
Ntp2171
Rp2172
(dp2173
g1940
g1941
sg1943
Nsg1944
g1945
sg1946
g1945
sg1947
g1948
sg1949
I400
sg1950
g1945
sbsg1846
Nsg1823
g1824
sg1951
Nsg1803
I01
sg1828
Nsg187
F1.0
sg188
F1.0
sg1829
Nsg1820
Nsg1832
I00
sg1833
I00
sg1834
(dp2174
sg1953
Nsg1836
I00
sg1886
g7
sg1865
Nsg1885
Nsg1954
Nsg1837
Nsg1870
Nsg1863
I01
sg1955
g1956
sg1957
V
p2175
sg1959
Nsg1855
Nsg1879
I0
sg1960
Nsg1880
I01
sg1882
Nsg1961
F1.2
sg60
g345
sg1962
Nsg1963
I00
sg1847
Nsg1964
g1965
sg1966
Vright
p2176
sg1838
NsbsS'transScale'
p2177
g63
sg60
NsS'axison'
p2178
I01
sg1919
g0
(g1840
g2
Ntp2179
Rp2180
(dp2181
g1793
g59
sg1844
F1.0
sg1845
I01
sg1814
g1817
sg1813
I01
sg1819
Nsg1846
Nsg1823
g1824
sg1847
Nsg1803
I01
sg1848
g0
(g1278
g2
Ntp2182
Rp2183
(dp2184
g14
I1
sg90
Nsg58
g59
sg41
(dp2185
sbsg1853
(F0.0
F0.0
F0.0
F0.0
tp2186
sg1828
Nsg187
F0.0
sg188
F0.0
sg1855
Nsg1829
Nsg1820
Nsg1832
I00
sg1833
I00
sg1834
(dp2187
sg1857
g1208
sg1836
I00
sg1862
Nsg1863
I01
sg1864
F0.0
sg1865
Nsg1866
F1.0
sg1837
Nsg1867
I01
sg1868
g1878
sg1870
Nsg1871
(F1.0
F1.0
F1.0
F1.0
tp2188
sg1873
g1874
sg1875
g1876
sg1877
VNone
p2189
sg1879
I0
sg1880
I01
sg1881
F0.0
sg1882
Nsg60
g81
sg1883
g1884
sg1885
Nsg1886
Nsg1838
NsbsS'viewLim'
p2190
g23
sg1823
g1824
sS'_subplotspec'
p2191
g0
(cmatplotlib.gridspec
SubplotSpec
p2192
g2
Ntp2193
Rp2194
(dp2195
S'num1'
p2196
I0
sS'num2'
p2197
NsS'_gridspec'
p2198
g0
(cmatplotlib.gridspec
GridSpec
p2199
g2
Ntp2200
Rp2201
(dp2202
S'_nrows'
p2203
I1
sg1925
NsS'_col_width_ratios'
p2204
Nsg1926
Nsg1927
Nsg1928
NsS'_ncols'
p2205
I1
sg1930
NsS'_row_height_ratios'
p2206
Nsg1931
NsbsbsS'_adjustable'
p2207
Vbox
p2208
sg1814
g1817
sS'titleOffsetTrans'
p2209
g332
sS'_yaxis_transform'
p2210
g185
sS'_gridOn'
p2211
I00
sg1819
NsS'colNum'
p2212
I0
sg1846
Nsg1888
(lp2213
sS'_autoscaleXon'
p2214
I01
sS'_xmargin'
p2215
F0.05
sS'rowNum'
p2216
I0
sS'_position'
p2217
g107
sS'_rasterization_zorder'
p2218
NsS'_cachedRenderer'
p2219
NsS'_navigate'
p2220
I01
sg1828
NsS'_originalPosition'
p2221
g0
(g21
g2
Ntp2222
Rp2223
(dp2224
g14
I1
sg25
g26
(g27
(I0
tp2225
g29
tp2226
Rp2227
(I1
(I2
tp2228
g36
I00
S'H\xaf\xbc\x9a\xf2\xd7z>H\xaf\xbc\x9a\xf2\xd7z>'
p2229
tp2230
bsg41
(dp2231
sg43
g26
(g27
(I0
tp2232
g29
tp2233
Rp2234
(I1
(I2
I2
tp2235
g36
I00
S'\x00\x00\x00\x00\x00\x00\xc0?\x98\x99\x99\x99\x99\x99\xb9?\xcd\xcc\xcc\xcc\xcc\xcc\xec?\xcd\xcc\xcc\xcc\xcc\xcc\xec?'
p2236
tp2237
bsg50
g26
(g27
(I0
tp2238
g29
tp2239
Rp2240
(I1
(I2
I2
tp2241
g36
I00
S'\x00\x00\x00\x00\x00\x00\xc0?\x98\x99\x99\x99\x99\x99\xb9?\xcd\xcc\xcc\xcc\xcc\xcc\xec?\xcd\xcc\xcc\xcc\xcc\xcc\xec?'
p2242
tp2243
bsg57
I01
sg58
g59
sbsg1829
NsS'_xaxis_transform'
p2244
g264
sg1832
I00
sS'figbox'
p2245
g107
sS'xaxis'
p2246
g0
(cmatplotlib.axis
XAxis
p2247
g2
Ntp2248
Rp2249
(dp2250
g1793
g59
sS'major'
p2251
g0
(cmatplotlib.axis
Ticker
p2252
g2
Ntp2253
Rp2254
(dp2255
S'locator'
p2256
g0
(cmatplotlib.ticker
AutoLocator
p2257
g2
Ntp2258
Rp2259
(dp2260
S'_symmetric'
p2261
I00
sS'_nbins'
p2262
I9
sS'_steps'
p2263
(lp2264
I1
aI2
aI5
aI10
asS'_prune'
p2265
NsS'_integer'
p2266
I00
sS'_trim'
p2267
I01
sS'axis'
p2268
g2249
sbsS'formatter'
p2269
g0
(cmatplotlib.ticker
ScalarFormatter
p2270
g2
Ntp2271
Rp2272
(dp2273
S'_powerlimits'
p2274
(lp2275
I-7
aI7
asS'orderOfMagnitude'
p2276
I0
sS'_useMathText'
p2277
I00
sS'format'
p2278
g59
sS'_useLocale'
p2279
I00
sS'_useOffset'
p2280
I01
sS'offset'
p2281
I0
sg1962
I00
sS'_scientific'
p2282
I01
sg2268
g2249
sbsbsS'isDefault_label'
p2283
I01
sS'_scale'
p2284
g0
(cmatplotlib.scale
LinearScale
p2285
g2
Ntp2286
Rp2287
sg1814
g1817
sg1813
I01
sS'_gridOnMinor'
p2288
I00
sg1819
Nsg1846
NsS'_smart_bounds'
p2289
I00
sg1823
g1824
sg1803
I01
sg1828
NsS'offsetText'
p2290
g0
(g1809
g2
Ntp2291
Rp2292
(dp2293
g1793
g59
sg1813
I01
sg1814
g1817
sg1819
Nsg1935
g0
(g1936
g2
Ntp2294
Rp2295
(dp2296
g1940
(lp2297
g1942
asg1943
Nsg1944
g1945
sg1946
g1945
sg1947
Vmedium
p2298
sg1949
I400
sg1950
g1945
sbsg1846
Nsg1823
g1824
sg1951
Nsg1803
I01
sg1828
Nsg187
I0
sg188
I1
sg1829
Nsg1820
Nsg1832
I00
sg1833
I00
sg1834
(dp2299
sg1953
Nsg1836
I00
sg1886
Nsg1865
Nsg1885
Nsg1954
Nsg1837
Nsg1870
Nsg1863
I01
sg1955
Vtop
p2300
sg1957
V
p2301
sg1959
Nsg1855
Nsg1879
I0
sg1960
Nsg1880
I01
sg1882
Nsg1961
F1.2
sg60
g1441
sg1962
Nsg1963
I00
sg1847
Nsg1964
g1965
sg1966
Vright
p2302
sg1838
Nsbsg1829
Nsg1820
NsS'label'
p2303
g0
(g1809
g2
Ntp2304
Rp2305
(dp2306
g1793
g59
sg1813
I01
sg1814
g1817
sg1819
Nsg1935
g0
(g1936
g2
Ntp2307
Rp2308
(dp2309
g1940
(lp2310
g1942
asg1943
Nsg1944
g1945
sg1946
g1945
sg1947
g2298
sg1949
I400
sg1950
g1945
sbsg1846
Nsg1823
g1824
sg1951
Nsg1803
I01
sg1828
Nsg187
I0
sg188
F0.5
sg1829
Nsg1820
Nsg1832
I00
sg1833
I00
sg1834
(dp2311
sg1953
Nsg1836
I00
sg1886
Nsg1865
Nsg1885
Nsg1954
Nsg1837
Nsg1870
Nsg1863
I01
sg1955
Vtop
p2312
sg1957
V
p2313
sg1959
Nsg1855
Nsg1879
I0
sg1960
Nsg1880
I01
sg1882
Nsg1961
F1.2
sg60
g1285
sg1962
Nsg1963
I00
sg1847
Nsg1964
g1965
sg1966
Vcenter
p2314
sg1838
Nsbsg1832
I00
sS'isDefault_majfmt'
p2315
I01
sg1833
I00
sg1834
(dp2316
sS'units'
p2317
Nsg1836
I00
sS'minor'
p2318
g0
(g2252
g2
Ntp2319
Rp2320
(dp2321
g2256
g0
(cmatplotlib.ticker
NullLocator
p2322
g2
Ntp2323
Rp2324
(dp2325
g2268
g2249
sbsg2269
g0
(cmatplotlib.ticker
NullFormatter
p2326
g2
Ntp2327
Rp2328
(dp2329
g2268
g2249
sbsbsg1886
g7
sS'_major_tick_kw'
p2330
(dp2331
VgridOn
p2332
I00
ssS'isDefault_minloc'
p2333
I01
sg1865
g1179
sg1837
NsS'_gridOnMajor'
p2334
I00
sS'_lastNumMinorTicks'
p2335
I1
sS'labelpad'
p2336
F5.0
sS'majorTicks'
p2337
(lp2338
g0
(cmatplotlib.axis
XTick
p2339
g2
Ntp2340
Rp2341
(dp2342
g1793
g59
sg1844
F0.5
sg1814
g1817
sS'tick1On'
p2343
I01
sg1813
I01
sg1819
Nsg1879
I0
sg1846
NsS'_pad'
p2344
F4.0
sS'_labelcolor'
p2345
g1965
sS'gridOn'
p2346
I00
sg1947
F4.0
sg1823
g1824
sS'_tickdir'
p2347
Vin
p2348
sg2303
g0
(g1809
g2
Ntp2349
Rp2350
(dp2351
g1793
g59
sg1813
I01
sg1814
g1817
sg1819
Nsg1935
g0
(g1936
g2
Ntp2352
Rp2353
(dp2354
g1940
(lp2355
g1942
asg1943
Nsg1944
g1945
sg1946
g1945
sg1947
g2298
sg1949
I400
sg1950
g1945
sbsg1846
Nsg1823
g1824
sg1951
Nsg1803
I01
sg1828
Nsg187
I0
sg188
I0
sg1829
Nsg1820
Nsg1832
I00
sg1833
I00
sg1834
(dp2356
sg1953
Nsg1836
I00
sg1886
Nsg1865
Nsg1885
Nsg1954
Nsg1837
Nsg1870
Nsg1863
I01
sg1955
Vtop
p2357
sg1957
V
p2358
sg1959
Nsg1855
Nsg1879
I0
sg1960
Nsg1880
I01
sg1882
Nsg1961
F1.2
sg60
g313
sg1962
Nsg1963
I00
sg1847
Nsg1964
g1965
sg1966
Vcenter
p2359
sg1838
Nsbsg1803
I01
sg1828
NsS'label2On'
p2360
I00
sg1829
Nsg1820
NsS'tick2On'
p2361
I01
sg1832
I00
sg1833
I00
sg1834
(dp2362
sS'_tickmarkers'
p2363
(I2
I3
tp2364
sg1836
I00
sS'_zorder'
p2365
F2.01
sg1886
g7
sS'label1On'
p2366
I01
sg1865
g1109
sg1885
NsS'label1'
p2367
g2350
sS'label2'
p2368
g0
(g1809
g2
Ntp2369
Rp2370
(dp2371
g1793
g59
sg1813
I01
sg1814
g1817
sg1819
Nsg1935
g0
(g1936
g2
Ntp2372
Rp2373
(dp2374
g1940
(lp2375
g1942
asg1943
Nsg1944
g1945
sg1946
g1945
sg1947
g2298
sg1949
I400
sg1950
g1945
sbsg1846
Nsg1823
g1824
sg1951
Nsg1803
I01
sg1828
Nsg187
I1
sg188
I0
sg1829
Nsg1820
Nsg1832
I00
sg1833
I00
sg1834
(dp2376
sg1953
Nsg1836
I00
sg1886
Nsg1865
Nsg1885
Nsg1954
Nsg1837
Nsg1870
Nsg1863
I01
sg1955
Vbottom
p2377
sg1957
V
p2378
sg1959
Nsg1855
Nsg1879
I0
sg1960
Nsg1880
I01
sg1882
Nsg1961
F1.2
sg60
g261
sg1962
Nsg1963
I00
sg1847
Nsg1964
g1965
sg1966
Vcenter
p2379
sg1838
Nsbsg1870
NsS'_loc'
p2380
I0
sg1863
I01
sg1855
NsS'_base_pad'
p2381
F4.0
sS'tick1line'
p2382
g0
(cmatplotlib.lines
Line2D
p2383
g2
Ntp2384
Rp2385
(dp2386
g1793
g59
sg1813
I01
sS'_solidcapstyle'
p2387
Vprojecting
p2388
sg1814
g1817
sS'_dashcapstyle'
p2389
Vbutt
p2390
sg1978
Nsg1819
Nsg1846
Nsg1823
g1824
sS'_solidjoinstyle'
p2391
Vround
p2392
sg1803
I01
sS'_x_filled'
p2393
Nsg1828
Nsg187
Nsg188
Nsg1855
Nsg1829
Nsg1820
Nsg1832
I00
sS'_markevery'
p2394
Nsg1833
I00
sg1834
(dp2395
sS'verticalOffset'
p2396
Nsg1836
I00
sS'_subslice'
p2397
I00
sg1886
NsS'_transformed_path'
p2398
NsS'_markeredgewidth'
p2399
F0.5
sS'_markerfacecolor'
p2400
Vauto
p2401
sS'_dashSeq'
p2402
Nsg1964
g1965
sS'_marker'
p2403
g0
(cmatplotlib.markers
MarkerStyle
p2404
g2
Ntp2405
Rp2406
(dp2407
g2403
I2
sS'_alt_path'
p2408
NsS'_snap_threshold'
p2409
F1.0
sg60
g0
(g91
g2
Ntp2410
Rp2411
(dp2412
g14
I2
sg90
Nsg83
g26
(g27
(I0
tp2413
g29
tp2414
Rp2415
(I1
(I3
I3
tp2416
g36
I00
S'\x00\x00\x00\x00\x00\x00\xf0?\x00\x00\x00\x00\x00\x00\x00\x00\x00\x00\x00\x00\x00\x00\x00\x00\x00\x00\x00\x00\x00\x00\x00\x00\x00\x00\x00\x00\x00\x00\xf0?\x00\x00\x00\x00\x00\x00\x00\x00\x00\x00\x00\x00\x00\x00\x00\x00\x00\x00\x00\x00\x00\x00\x00\x00\x00\x00\x00\x00\x00\x00\xf0?'
p2417
tp2418
bsg58
g59
sg41
(dp2419
sbsS'_filled'
p2420
I00
sS'_fillstyle'
p2421
Vfull
p2422
sS'_alt_transform'
p2423
Nsg1883
Vbutt
p2424
sg1873
Vround
p2425
sS'_path'
p2426
g0
(g1999
g2
Ntp2427
Rp2428
(dp2429
g2003
I00
sg2004
Nsg2016
g26
(g27
(I0
tp2430
g29
tp2431
Rp2432
(I1
(I2
I2
tp2433
g36
I00
S'\x00\x00\x00\x00\x00\x00\x00\x80\x00\x00\x00\x00\x00\x00\x00\x00\x00\x00\x00\x00\x00\x00\x00\x80\x00\x00\x00\x00\x00\x00\xf0?'
p2434
tp2435
bsg2023
I00
sg2024
F0.1111111111111111
sg2025
I1
sg2026
I00
sbsbsg1837
NsS'_markerfacecoloralt'
p2436
Vnone
p2437
sg1867
I01
sS'_markeredgecolor'
p2438
Vauto
p2439
sg1870
NsS'_markersize'
p2440
F4.0
sg1863
I01
sS'_xy'
p2441
Nsg1875
VNone
p2442
sS'_xorig'
p2443
(I0
tp2444
sg1879
I0
sS'_drawstyle'
p2445
Vdefault
p2446
sS'ind_offset'
p2447
I0
sS'pickradius'
p2448
I5
sg1880
I01
sg1882
NsS'_dashjoinstyle'
p2449
g2392
sS'_invalidx'
p2450
I01
sg60
g264
sS'_invalidy'
p2451
I01
sg2129
F2.01
sg1847
Nsg1885
NsS'_yorig'
p2452
(I0
tp2453
sg1865
Nsg1864
F1.0
sg1838
Nsg2426
Nsbsg1880
I00
sS'gridline'
p2454
g0
(g2383
g2
Ntp2455
Rp2456
(dp2457
g1793
g59
sg1813
I01
sg2387
g2388
sg1814
g1817
sg2389
g2390
sg1978
Nsg1819
Nsg1846
Nsg1823
g1824
sg2391
g2392
sg1803
I01
sg2393
Nsg1828
Nsg187
g26
(g27
(I0
tp2458
g29
tp2459
Rp2460
(I1
(I2
tp2461
g36
I00
S'\x00\x00\x00\x00\x00\x00\x00\x00\x00\x00\x00\x00\x00\x00\xf0?'
p2462
tp2463
bsg188
g26
(g27
(I0
tp2464
g29
tp2465
Rp2466
(I1
(I2
tp2467
g36
I00
S'\x00\x00\x00\x00\x00\x00\x00\x00\x00\x00\x00\x00\x00\x00\x00\x00'
p2468
tp2469
bsg1855
Nsg1829
Nsg1820
Nsg1832
I00
sg2394
Nsg1833
I00
sg1834
(dp2470
sg2396
Nsg1836
I00
sg2397
I00
sg1886
Nsg2398
Nsg2399
F0.5
sg2400
g2401
sg2402
Nsg1964
g1965
sg2403
g0
(g2404
g2
Ntp2471
Rp2472
(dp2473
g2403
VNone
p2474
sg2408
Nsg2409
Nsg60
g0
(g1278
g2
Ntp2475
Rp2476
(dp2477
g14
I1
sg90
Nsg58
g59
sg41
(dp2478
sbsg2420
I00
sg2421
g2422
sg2423
Nsg1883
g2424
sg1873
g2425
sg2426
g0
(g1999
g2
Ntp2479
Rp2480
(dp2481
g2003
I00
sg2004
Nsg2016
g26
(g27
(I0
tp2482
g29
tp2483
Rp2484
(I1
(I0
I2
tp2485
g36
I00
S''
p2486
tp2487
bsg2023
I00
sg2024
F0.1111111111111111
sg2025
I1
sg2026
I00
sbsbsg1837
Nsg2436
g2437
sg1867
I01
sg2438
g2439
sg1870
Nsg2440
F0.0
sg1863
I01
sg2441
g26
(g27
(I0
tp2488
g29
tp2489
Rp2490
(I1
(I2
I2
tp2491
g36
I00
S'\x00\x00\x00\x00\x00\x00\x00\x00\x00\x00\x00\x00\x00\x00\x00\x00\x00\x00\x00\x00\x00\x00\x00\x00\x00\x00\x00\x00\x00\x00\xf0?'
p2492
tp2493
bsg1875
V:
p2494
sg2443
(F0.0
F0.0
tp2495
sg1879
I0
sg2445
g2446
sg2447
I0
sg2448
I5
sg1880
I01
sg1882
F1.0
sg2449
g2392
sg2450
I00
sg60
g264
sg2451
I00
sg1847
Nsg1885
Nsg2452
(I0
F1.0
tp2496
sg1865
g1563
sg1864
F0.5
sg1838
Nsg2426
g0
(g1999
g2
Ntp2497
Rp2498
(dp2499
g2003
I00
sg2004
Nsg2016
g2490
sg2023
I00
sg2024
F0.1111111111111111
sg2025
I180
sg2026
I00
sbsbsg1882
Nsg1837
NsS'tick2line'
p2500
g0
(g2383
g2
Ntp2501
Rp2502
(dp2503
g1793
g59
sg1813
I01
sg2387
g2388
sg1814
g1817
sg2389
g2390
sg1978
Nsg1819
Nsg1846
Nsg1823
g1824
sg2391
g2392
sg1803
I01
sg2393
Nsg1828
Nsg187
Nsg188
Nsg1855
Nsg1829
Nsg1820
Nsg1832
I00
sg2394
Nsg1833
I00
sg1834
(dp2504
sg2396
Nsg1836
I00
sg2397
I00
sg1886
Nsg2398
Nsg2399
F0.5
sg2400
g2401
sg2402
Nsg1964
g1965
sg2403
g0
(g2404
g2
Ntp2505
Rp2506
(dp2507
g2403
I3
sg2408
Nsg2409
F1.0
sg60
g0
(g91
g2
Ntp2508
Rp2509
(dp2510
g14
I2
sg90
Nsg83
g26
(g27
(I0
tp2511
g29
tp2512
Rp2513
(I1
(I3
I3
tp2514
g36
I00
S'\x00\x00\x00\x00\x00\x00\xf0?\x00\x00\x00\x00\x00\x00\x00\x00\x00\x00\x00\x00\x00\x00\x00\x00\x00\x00\x00\x00\x00\x00\x00\x00\x00\x00\x00\x00\x00\x00\xf0\xbf\x00\x00\x00\x00\x00\x00\x00\x00\x00\x00\x00\x00\x00\x00\x00\x00\x00\x00\x00\x00\x00\x00\x00\x00\x00\x00\x00\x00\x00\x00\xf0?'
p2515
tp2516
bsg58
g59
sg41
(dp2517
sbsg2420
I00
sg2421
g2422
sg2423
Nsg1883
g2424
sg1873
g2425
sg2426
g2428
sbsg1837
Nsg2436
g2437
sg1867
I01
sg2438
g2439
sg1870
Nsg2440
F4.0
sg1863
I01
sg2441
Nsg1875
VNone
p2518
sg2443
(I0
tp2519
sg1879
I0
sg2445
g2446
sg2447
I0
sg2448
I5
sg1880
I01
sg1882
Nsg2449
g2392
sg2450
I01
sg60
g264
sg2451
I01
sg2129
F2.01
sg1847
Nsg1885
Nsg2452
(I1
tp2520
sg1865
Nsg1864
F1.0
sg1838
Nsg2426
Nsbsg60
NsS'_labelsize'
p2521
g2298
sS'_name'
p2522
Vxtick
p2523
sg1847
Nsg1964
g1965
sg1838
Nsbag0
(g2339
g2
Ntp2524
Rp2525
(dp2526
g1793
g59
sg1844
F0.5
sg1814
g1817
sg2343
I01
sg1813
I01
sg1819
Nsg1879
I0
sg1846
Nsg2344
F4.0
sg2345
g1965
sg2346
I00
sg1947
F4.0
sg1823
g1824
sg2347
g2348
sg2303
g0
(g1809
g2
Ntp2527
Rp2528
(dp2529
g1793
g59
sg1813
I01
sg1814
g1817
sg1819
Nsg1935
g0
(g1936
g2
Ntp2530
Rp2531
(dp2532
g1940
(lp2533
g1942
asg1943
Nsg1944
g1945
sg1946
g1945
sg1947
g2298
sg1949
I400
sg1950
g1945
sbsg1846
Nsg1823
g1824
sg1951
Nsg1803
I01
sg1828
Nsg187
I0
sg188
I0
sg1829
Nsg1820
Nsg1832
I00
sg1833
I00
sg1834
(dp2534
sg1953
Nsg1836
I00
sg1886
Nsg1865
Nsg1885
Nsg1954
Nsg1837
Nsg1870
Nsg1863
I01
sg1955
g2357
sg1957
V
p2535
sg1959
Nsg1855
Nsg1879
I0
sg1960
Nsg1880
I01
sg1882
Nsg1961
F1.2
sg60
g295
sg1962
Nsg1963
I00
sg1847
Nsg1964
g1965
sg1966
g2359
sg1838
Nsbsg1803
I01
sg1828
Nsg2360
I00
sg1829
Nsg1820
Nsg2361
I01
sg1832
I00
sg1833
I00
sg1834
(dp2536
sg2363
(I2
I3
tp2537
sg1836
I00
sg2365
F2.01
sg1886
g7
sg2366
I01
sg1865
g689
sg1885
Nsg2367
g2528
sg2368
g0
(g1809
g2
Ntp2538
Rp2539
(dp2540
g1793
g59
sg1813
I01
sg1814
g1817
sg1819
Nsg1935
g0
(g1936
g2
Ntp2541
Rp2542
(dp2543
g1940
(lp2544
g1942
asg1943
Nsg1944
g1945
sg1946
g1945
sg1947
g2298
sg1949
I400
sg1950
g1945
sbsg1846
Nsg1823
g1824
sg1951
Nsg1803
I01
sg1828
Nsg187
I1
sg188
I0
sg1829
Nsg1820
Nsg1832
I00
sg1833
I00
sg1834
(dp2545
sg1953
Nsg1836
I00
sg1886
Nsg1865
Nsg1885
Nsg1954
Nsg1837
Nsg1870
Nsg1863
I01
sg1955
g2377
sg1957
V
p2546
sg1959
Nsg1855
Nsg1879
I0
sg1960
Nsg1880
I01
sg1882
Nsg1961
F1.2
sg60
g304
sg1962
Nsg1963
I00
sg1847
Nsg1964
g1965
sg1966
g2379
sg1838
Nsbsg1870
Nsg2380
I0
sg1863
I01
sg1855
Nsg2381
F4.0
sg2382
g0
(g2383
g2
Ntp2547
Rp2548
(dp2549
g1793
g59
sg1813
I01
sg2387
g2388
sg1814
g1817
sg2389
g2390
sg1978
Nsg1819
Nsg1846
Nsg1823
g1824
sg2391
g2392
sg1803
I01
sg2393
Nsg1828
Nsg187
Nsg188
Nsg1855
Nsg1829
Nsg1820
Nsg1832
I00
sg2394
Nsg1833
I00
sg1834
(dp2550
sg2396
Nsg1836
I00
sg2397
I00
sg1886
Nsg2398
Nsg2399
F0.5
sg2400
g2401
sg2402
Nsg1964
g1965
sg2403
g0
(g2404
g2
Ntp2551
Rp2552
(dp2553
g2403
I2
sg2408
Nsg2409
F1.0
sg60
g0
(g91
g2
Ntp2554
Rp2555
(dp2556
g14
I2
sg90
Nsg83
g26
(g27
(I0
tp2557
g29
tp2558
Rp2559
(I1
(I3
I3
tp2560
g36
I00
S'\x00\x00\x00\x00\x00\x00\xf0?\x00\x00\x00\x00\x00\x00\x00\x00\x00\x00\x00\x00\x00\x00\x00\x00\x00\x00\x00\x00\x00\x00\x00\x00\x00\x00\x00\x00\x00\x00\xf0?\x00\x00\x00\x00\x00\x00\x00\x00\x00\x00\x00\x00\x00\x00\x00\x00\x00\x00\x00\x00\x00\x00\x00\x00\x00\x00\x00\x00\x00\x00\xf0?'
p2561
tp2562
bsg58
g59
sg41
(dp2563
sbsg2420
I00
sg2421
g2422
sg2423
Nsg1883
g2424
sg1873
g2425
sg2426
g2428
sbsg1837
Nsg2436
g2437
sg1867
I01
sg2438
g2439
sg1870
Nsg2440
F4.0
sg1863
I01
sg2441
Nsg1875
g2442
sg2443
(I0
tp2564
sg1879
I0
sg2445
g2446
sg2447
I0
sg2448
I5
sg1880
I01
sg1882
Nsg2449
g2392
sg2450
I01
sg60
g264
sg2451
I01
sg2129
F2.01
sg1847
Nsg1885
Nsg2452
g2453
sg1865
Nsg1864
F1.0
sg1838
Nsg2426
Nsbsg1880
I00
sg2454
g0
(g2383
g2
Ntp2565
Rp2566
(dp2567
g1793
g59
sg1813
I01
sg2387
g2388
sg1814
g1817
sg2389
g2390
sg1978
Nsg1819
Nsg1846
Nsg1823
g1824
sg2391
g2392
sg1803
I01
sg2393
Nsg1828
Nsg187
g26
(g27
(I0
tp2568
g29
tp2569
Rp2570
(I1
(I2
tp2571
g36
I00
S'\x00\x00\x00\x00\x00\x00\x00\x00\x00\x00\x00\x00\x00\x00\xf0?'
p2572
tp2573
bsg188
g26
(g27
(I0
tp2574
g29
tp2575
Rp2576
(I1
(I2
tp2577
g36
I00
S'\x00\x00\x00\x00\x00\x00\x00\x00\x00\x00\x00\x00\x00\x00\x00\x00'
p2578
tp2579
bsg1855
Nsg1829
Nsg1820
Nsg1832
I00
sg2394
Nsg1833
I00
sg1834
(dp2580
sg2396
Nsg1836
I00
sg2397
I00
sg1886
Nsg2398
Nsg2399
F0.5
sg2400
g2401
sg2402
Nsg1964
g1965
sg2403
g0
(g2404
g2
Ntp2581
Rp2582
(dp2583
g2403
g2474
sg2408
Nsg2409
Nsg60
g0
(g1278
g2
Ntp2584
Rp2585
(dp2586
g14
I1
sg90
Nsg58
g59
sg41
(dp2587
sbsg2420
I00
sg2421
g2422
sg2423
Nsg1883
g2424
sg1873
g2425
sg2426
g0
(g1999
g2
Ntp2588
Rp2589
(dp2590
g2003
I00
sg2004
Nsg2016
g26
(g27
(I0
tp2591
g29
tp2592
Rp2593
(I1
(I0
I2
tp2594
g36
I00
g2486
tp2595
bsg2023
I00
sg2024
F0.1111111111111111
sg2025
I1
sg2026
I00
sbsbsg1837
Nsg2436
g2437
sg1867
I01
sg2438
g2439
sg1870
Nsg2440
F0.0
sg1863
I01
sg2441
g26
(g27
(I0
tp2596
g29
tp2597
Rp2598
(I1
(I2
I2
tp2599
g36
I00
S'\x00\x00\x00\x00\x00\x00\x00\x00\x00\x00\x00\x00\x00\x00\x00\x00\x00\x00\x00\x00\x00\x00\x00\x00\x00\x00\x00\x00\x00\x00\xf0?'
p2600
tp2601
bsg1875
g2494
sg2443
g2495
sg1879
I0
sg2445
g2446
sg2447
I0
sg2448
I5
sg1880
I01
sg1882
F1.0
sg2449
g2392
sg2450
I00
sg60
g264
sg2451
I00
sg1847
Nsg1885
Nsg2452
g2496
sg1865
g829
sg1864
F0.5
sg1838
Nsg2426
g0
(g1999
g2
Ntp2602
Rp2603
(dp2604
g2003
I00
sg2004
Nsg2016
g2598
sg2023
I00
sg2024
F0.1111111111111111
sg2025
I180
sg2026
I00
sbsbsg1882
Nsg1837
Nsg2500
g0
(g2383
g2
Ntp2605
Rp2606
(dp2607
g1793
g59
sg1813
I01
sg2387
g2388
sg1814
g1817
sg2389
g2390
sg1978
Nsg1819
Nsg1846
Nsg1823
g1824
sg2391
g2392
sg1803
I01
sg2393
Nsg1828
Nsg187
Nsg188
Nsg1855
Nsg1829
Nsg1820
Nsg1832
I00
sg2394
Nsg1833
I00
sg1834
(dp2608
sg2396
Nsg1836
I00
sg2397
I00
sg1886
Nsg2398
Nsg2399
F0.5
sg2400
g2401
sg2402
Nsg1964
g1965
sg2403
g0
(g2404
g2
Ntp2609
Rp2610
(dp2611
g2403
I3
sg2408
Nsg2409
F1.0
sg60
g0
(g91
g2
Ntp2612
Rp2613
(dp2614
g14
I2
sg90
Nsg83
g26
(g27
(I0
tp2615
g29
tp2616
Rp2617
(I1
(I3
I3
tp2618
g36
I00
S'\x00\x00\x00\x00\x00\x00\xf0?\x00\x00\x00\x00\x00\x00\x00\x00\x00\x00\x00\x00\x00\x00\x00\x00\x00\x00\x00\x00\x00\x00\x00\x00\x00\x00\x00\x00\x00\x00\xf0\xbf\x00\x00\x00\x00\x00\x00\x00\x00\x00\x00\x00\x00\x00\x00\x00\x00\x00\x00\x00\x00\x00\x00\x00\x00\x00\x00\x00\x00\x00\x00\xf0?'
p2619
tp2620
bsg58
g59
sg41
(dp2621
sbsg2420
I00
sg2421
g2422
sg2423
Nsg1883
g2424
sg1873
g2425
sg2426
g2428
sbsg1837
Nsg2436
g2437
sg1867
I01
sg2438
g2439
sg1870
Nsg2440
F4.0
sg1863
I01
sg2441
Nsg1875
g2518
sg2443
(I0
tp2622
sg1879
I0
sg2445
g2446
sg2447
I0
sg2448
I5
sg1880
I01
sg1882
Nsg2449
g2392
sg2450
I01
sg60
g264
sg2451
I01
sg2129
F2.01
sg1847
Nsg1885
Nsg2452
g2520
sg1865
Nsg1864
F1.0
sg1838
Nsg2426
Nsbsg60
Nsg2521
g2298
sg2522
g2523
sg1847
Nsg1964
g1965
sg1838
NsbasS'isDefault_majloc'
p2623
I01
sg1893
g0
(g1894
g2
Ntp2624
Rp2625
sg1870
Nsg1863
I01
sS'_autolabelpos'
p2626
I01
sg1855
Nsg1879
I0
sS'_lastNumMajorTicks'
p2627
I1
sS'converter'
p2628
Nsg1880
I00
sg1882
NsS'offset_text_position'
p2629
Vbottom
p2630
sg60
NsS'label_position'
p2631
Vbottom
p2632
sg1847
Nsg1885
Nsg2448
I15
sS'minorTicks'
p2633
(lp2634
g0
(g2339
g2
Ntp2635
Rp2636
(dp2637
g1793
g59
sg1844
F0.5
sg1814
g1817
sg2343
I01
sg1813
I01
sg1819
Nsg1879
I0
sg1846
Nsg2344
F4.0
sg2345
g1965
sg2346
I00
sg1947
F2.0
sg1823
g1824
sg2347
g2348
sg2303
g0
(g1809
g2
Ntp2638
Rp2639
(dp2640
g1793
g59
sg1813
I01
sg1814
g1817
sg1819
Nsg1935
g0
(g1936
g2
Ntp2641
Rp2642
(dp2643
g1940
(lp2644
g1942
asg1943
Nsg1944
g1945
sg1946
g1945
sg1947
g2298
sg1949
I400
sg1950
g1945
sbsg1846
Nsg1823
g1824
sg1951
Nsg1803
I01
sg1828
Nsg187
I0
sg188
I0
sg1829
Nsg1820
Nsg1832
I00
sg1833
I00
sg1834
(dp2645
sg1953
Nsg1836
I00
sg1886
Nsg1865
Nsg1885
Nsg1954
Nsg1837
Nsg1870
Nsg1863
I01
sg1955
g2357
sg1957
V
p2646
sg1959
Nsg1855
Nsg1879
I0
sg1960
Nsg1880
I01
sg1882
Nsg1961
F1.2
sg60
g268
sg1962
Nsg1963
I00
sg1847
Nsg1964
g1965
sg1966
g2359
sg1838
Nsbsg1803
I01
sg1828
Nsg2360
I00
sg1829
Nsg1820
Nsg2361
I01
sg1832
I00
sg1833
I00
sg1834
(dp2647
sg2363
(I2
I3
tp2648
sg1836
I00
sg2365
I2
sg1886
g7
sg2366
I01
sg1865
g969
sg1885
Nsg2367
g2639
sg2368
g0
(g1809
g2
Ntp2649
Rp2650
(dp2651
g1793
g59
sg1813
I01
sg1814
g1817
sg1819
Nsg1935
g0
(g1936
g2
Ntp2652
Rp2653
(dp2654
g1940
(lp2655
g1942
asg1943
Nsg1944
g1945
sg1946
g1945
sg1947
g2298
sg1949
I400
sg1950
g1945
sbsg1846
Nsg1823
g1824
sg1951
Nsg1803
I01
sg1828
Nsg187
I1
sg188
I0
sg1829
Nsg1820
Nsg1832
I00
sg1833
I00
sg1834
(dp2656
sg1953
Nsg1836
I00
sg1886
Nsg1865
Nsg1885
Nsg1954
Nsg1837
Nsg1870
Nsg1863
I01
sg1955
g2377
sg1957
V
p2657
sg1959
Nsg1855
Nsg1879
I0
sg1960
Nsg1880
I01
sg1882
Nsg1961
F1.2
sg60
g277
sg1962
Nsg1963
I00
sg1847
Nsg1964
g1965
sg1966
g2379
sg1838
Nsbsg1870
Nsg2380
I0
sg1863
I01
sg1855
Nsg2381
F4.0
sg2382
g0
(g2383
g2
Ntp2658
Rp2659
(dp2660
g1793
g59
sg1813
I01
sg2387
g2388
sg1814
g1817
sg2389
g2390
sg1978
Nsg1819
Nsg1846
Nsg1823
g1824
sg2391
g2392
sg1803
I01
sg2393
Nsg1828
Nsg187
Nsg188
Nsg1855
Nsg1829
Nsg1820
Nsg1832
I00
sg2394
Nsg1833
I00
sg1834
(dp2661
sg2396
Nsg1836
I00
sg2397
I00
sg1886
Nsg2398
Nsg2399
F0.5
sg2400
g2401
sg2402
Nsg1964
g1965
sg2403
g0
(g2404
g2
Ntp2662
Rp2663
(dp2664
g2403
I2
sg2408
Nsg2409
F1.0
sg60
g0
(g91
g2
Ntp2665
Rp2666
(dp2667
g14
I2
sg90
Nsg83
g26
(g27
(I0
tp2668
g29
tp2669
Rp2670
(I1
(I3
I3
tp2671
g36
I00
S'\x00\x00\x00\x00\x00\x00\xf0?\x00\x00\x00\x00\x00\x00\x00\x00\x00\x00\x00\x00\x00\x00\x00\x00\x00\x00\x00\x00\x00\x00\x00\x00\x00\x00\x00\x00\x00\x00\xf0?\x00\x00\x00\x00\x00\x00\x00\x00\x00\x00\x00\x00\x00\x00\x00\x00\x00\x00\x00\x00\x00\x00\x00\x00\x00\x00\x00\x00\x00\x00\xf0?'
p2672
tp2673
bsg58
g59
sg41
(dp2674
sbsg2420
I00
sg2421
g2422
sg2423
Nsg1883
g2424
sg1873
g2425
sg2426
g2428
sbsg1837
Nsg2436
g2437
sg1867
I01
sg2438
g2439
sg1870
Nsg2440
F2.0
sg1863
I01
sg2441
Nsg1875
g2442
sg2443
(I0
tp2675
sg1879
I0
sg2445
g2446
sg2447
I0
sg2448
I5
sg1880
I01
sg1882
Nsg2449
g2392
sg2450
I01
sg60
g264
sg2451
I01
sg2129
I2
sg1847
Nsg1885
Nsg2452
g2453
sg1865
Nsg1864
F1.0
sg1838
Nsg2426
Nsbsg1880
I00
sg2454
g0
(g2383
g2
Ntp2676
Rp2677
(dp2678
g1793
g59
sg1813
I01
sg2387
g2388
sg1814
g1817
sg2389
g2390
sg1978
Nsg1819
Nsg1846
Nsg1823
g1824
sg2391
g2392
sg1803
I01
sg2393
Nsg1828
Nsg187
g26
(g27
(I0
tp2679
g29
tp2680
Rp2681
(I1
(I2
tp2682
g36
I00
S'\x00\x00\x00\x00\x00\x00\x00\x00\x00\x00\x00\x00\x00\x00\xf0?'
p2683
tp2684
bsg188
g26
(g27
(I0
tp2685
g29
tp2686
Rp2687
(I1
(I2
tp2688
g36
I00
S'\x00\x00\x00\x00\x00\x00\x00\x00\x00\x00\x00\x00\x00\x00\x00\x00'
p2689
tp2690
bsg1855
Nsg1829
Nsg1820
Nsg1832
I00
sg2394
Nsg1833
I00
sg1834
(dp2691
sg2396
Nsg1836
I00
sg2397
I00
sg1886
Nsg2398
Nsg2399
F0.5
sg2400
g2401
sg2402
Nsg1964
g1965
sg2403
g0
(g2404
g2
Ntp2692
Rp2693
(dp2694
g2403
g2474
sg2408
Nsg2409
Nsg60
g0
(g1278
g2
Ntp2695
Rp2696
(dp2697
g14
I1
sg90
Nsg58
g59
sg41
(dp2698
sbsg2420
I00
sg2421
g2422
sg2423
Nsg1883
g2424
sg1873
g2425
sg2426
g0
(g1999
g2
Ntp2699
Rp2700
(dp2701
g2003
I00
sg2004
Nsg2016
g26
(g27
(I0
tp2702
g29
tp2703
Rp2704
(I1
(I0
I2
tp2705
g36
I00
g2486
tp2706
bsg2023
I00
sg2024
F0.1111111111111111
sg2025
I1
sg2026
I00
sbsbsg1837
Nsg2436
g2437
sg1867
I01
sg2438
g2439
sg1870
Nsg2440
F0.0
sg1863
I01
sg2441
g26
(g27
(I0
tp2707
g29
tp2708
Rp2709
(I1
(I2
I2
tp2710
g36
I00
S'\x00\x00\x00\x00\x00\x00\x00\x00\x00\x00\x00\x00\x00\x00\x00\x00\x00\x00\x00\x00\x00\x00\x00\x00\x00\x00\x00\x00\x00\x00\xf0?'
p2711
tp2712
bsg1875
g2494
sg2443
g2495
sg1879
I0
sg2445
g2446
sg2447
I0
sg2448
I5
sg1880
I01
sg1882
F1.0
sg2449
g2392
sg2450
I00
sg60
g264
sg2451
I00
sg1847
Nsg1885
Nsg2452
g2496
sg1865
g1337
sg1864
F0.5
sg1838
Nsg2426
g0
(g1999
g2
Ntp2713
Rp2714
(dp2715
g2003
I00
sg2004
Nsg2016
g2709
sg2023
I00
sg2024
F0.1111111111111111
sg2025
I180
sg2026
I00
sbsbsg1882
Nsg1837
Nsg2500
g0
(g2383
g2
Ntp2716
Rp2717
(dp2718
g1793
g59
sg1813
I01
sg2387
g2388
sg1814
g1817
sg2389
g2390
sg1978
Nsg1819
Nsg1846
Nsg1823
g1824
sg2391
g2392
sg1803
I01
sg2393
Nsg1828
Nsg187
Nsg188
Nsg1855
Nsg1829
Nsg1820
Nsg1832
I00
sg2394
Nsg1833
I00
sg1834
(dp2719
sg2396
Nsg1836
I00
sg2397
I00
sg1886
Nsg2398
Nsg2399
F0.5
sg2400
g2401
sg2402
Nsg1964
g1965
sg2403
g0
(g2404
g2
Ntp2720
Rp2721
(dp2722
g2403
I3
sg2408
Nsg2409
F1.0
sg60
g0
(g91
g2
Ntp2723
Rp2724
(dp2725
g14
I2
sg90
Nsg83
g26
(g27
(I0
tp2726
g29
tp2727
Rp2728
(I1
(I3
I3
tp2729
g36
I00
S'\x00\x00\x00\x00\x00\x00\xf0?\x00\x00\x00\x00\x00\x00\x00\x00\x00\x00\x00\x00\x00\x00\x00\x00\x00\x00\x00\x00\x00\x00\x00\x00\x00\x00\x00\x00\x00\x00\xf0\xbf\x00\x00\x00\x00\x00\x00\x00\x00\x00\x00\x00\x00\x00\x00\x00\x00\x00\x00\x00\x00\x00\x00\x00\x00\x00\x00\x00\x00\x00\x00\xf0?'
p2730
tp2731
bsg58
g59
sg41
(dp2732
sbsg2420
I00
sg2421
g2422
sg2423
Nsg1883
g2424
sg1873
g2425
sg2426
g2428
sbsg1837
Nsg2436
g2437
sg1867
I01
sg2438
g2439
sg1870
Nsg2440
F2.0
sg1863
I01
sg2441
Nsg1875
g2518
sg2443
(I0
tp2733
sg1879
I0
sg2445
g2446
sg2447
I0
sg2448
I5
sg1880
I01
sg1882
Nsg2449
g2392
sg2450
I01
sg60
g264
sg2451
I01
sg2129
I2
sg1847
Nsg1885
Nsg2452
g2520
sg1865
Nsg1864
F1.0
sg1838
Nsg2426
Nsbsg60
Nsg2521
g2298
sg2522
g2523
sg1847
Nsg1964
g1965
sg1838
Nsbag0
(g2339
g2
Ntp2734
Rp2735
(dp2736
g1793
g59
sg1844
F0.5
sg1814
g1817
sg2343
I01
sg1813
I01
sg1819
Nsg1879
I0
sg1846
Nsg2344
F4.0
sg2345
g1965
sg2346
I00
sg1947
F2.0
sg1823
g1824
sg2347
g2348
sg2303
g0
(g1809
g2
Ntp2737
Rp2738
(dp2739
g1793
g59
sg1813
I01
sg1814
g1817
sg1819
Nsg1935
g0
(g1936
g2
Ntp2740
Rp2741
(dp2742
g1940
(lp2743
g1942
asg1943
Nsg1944
g1945
sg1946
g1945
sg1947
g2298
sg1949
I400
sg1950
g1945
sbsg1846
Nsg1823
g1824
sg1951
Nsg1803
I01
sg1828
Nsg187
I0
sg188
I0
sg1829
Nsg1820
Nsg1832
I00
sg1833
I00
sg1834
(dp2744
sg1953
Nsg1836
I00
sg1886
Nsg1865
Nsg1885
Nsg1954
Nsg1837
Nsg1870
Nsg1863
I01
sg1955
g2357
sg1957
V
p2745
sg1959
Nsg1855
Nsg1879
I0
sg1960
Nsg1880
I01
sg1882
Nsg1961
F1.2
sg60
g286
sg1962
Nsg1963
I00
sg1847
Nsg1964
g1965
sg1966
g2359
sg1838
Nsbsg1803
I01
sg1828
Nsg2360
I00
sg1829
Nsg1820
Nsg2361
I01
sg1832
I00
sg1833
I00
sg1834
(dp2746
sg2363
(I2
I3
tp2747
sg1836
I00
sg2365
I2
sg1886
g7
sg2366
I01
sg1865
g409
sg1885
Nsg2367
g2738
sg2368
g0
(g1809
g2
Ntp2748
Rp2749
(dp2750
g1793
g59
sg1813
I01
sg1814
g1817
sg1819
Nsg1935
g0
(g1936
g2
Ntp2751
Rp2752
(dp2753
g1940
(lp2754
g1942
asg1943
Nsg1944
g1945
sg1946
g1945
sg1947
g2298
sg1949
I400
sg1950
g1945
sbsg1846
Nsg1823
g1824
sg1951
Nsg1803
I01
sg1828
Nsg187
I1
sg188
I0
sg1829
Nsg1820
Nsg1832
I00
sg1833
I00
sg1834
(dp2755
sg1953
Nsg1836
I00
sg1886
Nsg1865
Nsg1885
Nsg1954
Nsg1837
Nsg1870
Nsg1863
I01
sg1955
g2377
sg1957
V
p2756
sg1959
Nsg1855
Nsg1879
I0
sg1960
Nsg1880
I01
sg1882
Nsg1961
F1.2
sg60
g322
sg1962
Nsg1963
I00
sg1847
Nsg1964
g1965
sg1966
g2379
sg1838
Nsbsg1870
Nsg2380
I0
sg1863
I01
sg1855
Nsg2381
F4.0
sg2382
g0
(g2383
g2
Ntp2757
Rp2758
(dp2759
g1793
g59
sg1813
I01
sg2387
g2388
sg1814
g1817
sg2389
g2390
sg1978
Nsg1819
Nsg1846
Nsg1823
g1824
sg2391
g2392
sg1803
I01
sg2393
Nsg1828
Nsg187
Nsg188
Nsg1855
Nsg1829
Nsg1820
Nsg1832
I00
sg2394
Nsg1833
I00
sg1834
(dp2760
sg2396
Nsg1836
I00
sg2397
I00
sg1886
Nsg2398
Nsg2399
F0.5
sg2400
g2401
sg2402
Nsg1964
g1965
sg2403
g0
(g2404
g2
Ntp2761
Rp2762
(dp2763
g2403
I2
sg2408
Nsg2409
F1.0
sg60
g0
(g91
g2
Ntp2764
Rp2765
(dp2766
g14
I2
sg90
Nsg83
g26
(g27
(I0
tp2767
g29
tp2768
Rp2769
(I1
(I3
I3
tp2770
g36
I00
S'\x00\x00\x00\x00\x00\x00\xf0?\x00\x00\x00\x00\x00\x00\x00\x00\x00\x00\x00\x00\x00\x00\x00\x00\x00\x00\x00\x00\x00\x00\x00\x00\x00\x00\x00\x00\x00\x00\xf0?\x00\x00\x00\x00\x00\x00\x00\x00\x00\x00\x00\x00\x00\x00\x00\x00\x00\x00\x00\x00\x00\x00\x00\x00\x00\x00\x00\x00\x00\x00\xf0?'
p2771
tp2772
bsg58
g59
sg41
(dp2773
sbsg2420
I00
sg2421
g2422
sg2423
Nsg1883
g2424
sg1873
g2425
sg2426
g2428
sbsg1837
Nsg2436
g2437
sg1867
I01
sg2438
g2439
sg1870
Nsg2440
F2.0
sg1863
I01
sg2441
Nsg1875
g2442
sg2443
(I0
tp2774
sg1879
I0
sg2445
g2446
sg2447
I0
sg2448
I5
sg1880
I01
sg1882
Nsg2449
g2392
sg2450
I01
sg60
g264
sg2451
I01
sg2129
I2
sg1847
Nsg1885
Nsg2452
g2453
sg1865
Nsg1864
F1.0
sg1838
Nsg2426
Nsbsg1880
I00
sg2454
g0
(g2383
g2
Ntp2775
Rp2776
(dp2777
g1793
g59
sg1813
I01
sg2387
g2388
sg1814
g1817
sg2389
g2390
sg1978
Nsg1819
Nsg1846
Nsg1823
g1824
sg2391
g2392
sg1803
I01
sg2393
Nsg1828
Nsg187
g26
(g27
(I0
tp2778
g29
tp2779
Rp2780
(I1
(I2
tp2781
g36
I00
S'\x00\x00\x00\x00\x00\x00\x00\x00\x00\x00\x00\x00\x00\x00\xf0?'
p2782
tp2783
bsg188
g26
(g27
(I0
tp2784
g29
tp2785
Rp2786
(I1
(I2
tp2787
g36
I00
S'\x00\x00\x00\x00\x00\x00\x00\x00\x00\x00\x00\x00\x00\x00\x00\x00'
p2788
tp2789
bsg1855
Nsg1829
Nsg1820
Nsg1832
I00
sg2394
Nsg1833
I00
sg1834
(dp2790
sg2396
Nsg1836
I00
sg2397
I00
sg1886
Nsg2398
Nsg2399
F0.5
sg2400
g2401
sg2402
Nsg1964
g1965
sg2403
g0
(g2404
g2
Ntp2791
Rp2792
(dp2793
g2403
g2474
sg2408
Nsg2409
Nsg60
g0
(g1278
g2
Ntp2794
Rp2795
(dp2796
g14
I1
sg90
Nsg58
g59
sg41
(dp2797
sbsg2420
I00
sg2421
g2422
sg2423
Nsg1883
g2424
sg1873
g2425
sg2426
g0
(g1999
g2
Ntp2798
Rp2799
(dp2800
g2003
I00
sg2004
Nsg2016
g26
(g27
(I0
tp2801
g29
tp2802
Rp2803
(I1
(I0
I2
tp2804
g36
I00
g2486
tp2805
bsg2023
I00
sg2024
F0.1111111111111111
sg2025
I1
sg2026
I00
sbsbsg1837
Nsg2436
g2437
sg1867
I01
sg2438
g2439
sg1870
Nsg2440
F0.0
sg1863
I01
sg2441
g26
(g27
(I0
tp2806
g29
tp2807
Rp2808
(I1
(I2
I2
tp2809
g36
I00
S'\x00\x00\x00\x00\x00\x00\x00\x00\x00\x00\x00\x00\x00\x00\x00\x00\x00\x00\x00\x00\x00\x00\x00\x00\x00\x00\x00\x00\x00\x00\xf0?'
p2810
tp2811
bsg1875
g2494
sg2443
g2495
sg1879
I0
sg2445
g2446
sg2447
I0
sg2448
I5
sg1880
I01
sg1882
F1.0
sg2449
g2392
sg2450
I00
sg60
g264
sg2451
I00
sg1847
Nsg1885
Nsg2452
g2496
sg1865
g759
sg1864
F0.5
sg1838
Nsg2426
g0
(g1999
g2
Ntp2812
Rp2813
(dp2814
g2003
I00
sg2004
Nsg2016
g2808
sg2023
I00
sg2024
F0.1111111111111111
sg2025
I180
sg2026
I00
sbsbsg1882
Nsg1837
Nsg2500
g0
(g2383
g2
Ntp2815
Rp2816
(dp2817
g1793
g59
sg1813
I01
sg2387
g2388
sg1814
g1817
sg2389
g2390
sg1978
Nsg1819
Nsg1846
Nsg1823
g1824
sg2391
g2392
sg1803
I01
sg2393
Nsg1828
Nsg187
Nsg188
Nsg1855
Nsg1829
Nsg1820
Nsg1832
I00
sg2394
Nsg1833
I00
sg1834
(dp2818
sg2396
Nsg1836
I00
sg2397
I00
sg1886
Nsg2398
Nsg2399
F0.5
sg2400
g2401
sg2402
Nsg1964
g1965
sg2403
g0
(g2404
g2
Ntp2819
Rp2820
(dp2821
g2403
I3
sg2408
Nsg2409
F1.0
sg60
g0
(g91
g2
Ntp2822
Rp2823
(dp2824
g14
I2
sg90
Nsg83
g26
(g27
(I0
tp2825
g29
tp2826
Rp2827
(I1
(I3
I3
tp2828
g36
I00
S'\x00\x00\x00\x00\x00\x00\xf0?\x00\x00\x00\x00\x00\x00\x00\x00\x00\x00\x00\x00\x00\x00\x00\x00\x00\x00\x00\x00\x00\x00\x00\x00\x00\x00\x00\x00\x00\x00\xf0\xbf\x00\x00\x00\x00\x00\x00\x00\x00\x00\x00\x00\x00\x00\x00\x00\x00\x00\x00\x00\x00\x00\x00\x00\x00\x00\x00\x00\x00\x00\x00\xf0?'
p2829
tp2830
bsg58
g59
sg41
(dp2831
sbsg2420
I00
sg2421
g2422
sg2423
Nsg1883
g2424
sg1873
g2425
sg2426
g2428
sbsg1837
Nsg2436
g2437
sg1867
I01
sg2438
g2439
sg1870
Nsg2440
F2.0
sg1863
I01
sg2441
Nsg1875
g2518
sg2443
(I0
tp2832
sg1879
I0
sg2445
g2446
sg2447
I0
sg2448
I5
sg1880
I01
sg1882
Nsg2449
g2392
sg2450
I01
sg60
g264
sg2451
I01
sg2129
I2
sg1847
Nsg1885
Nsg2452
g2520
sg1865
Nsg1864
F1.0
sg1838
Nsg2426
Nsbsg60
Nsg2521
g2298
sg2522
g2523
sg1847
Nsg1964
g1965
sg1838
Nsbasg1838
NsS'_minor_tick_kw'
p2833
(dp2834
sS'isDefault_minfmt'
p2835
I01
sbsS'_navigate_mode'
p2836
Nsg1838
NsS'transAxes'
p2837
g81
sS'_connected'
p2838
(dp2839
sS'fmt_ydata'
p2840
NsS'dataLim'
p2841
g0
(g21
g2
Ntp2842
Rp2843
(dp2844
g14
I0
sg25
g26
(g27
(I0
tp2845
g29
tp2846
Rp2847
(I1
(I2
tp2848
g36
I00
S'7\x84\xb6\x9d\x11\xdb\xef?\\E\x98\x05\x13\xf4\x0f@'
p2849
tp2850
bsg41
(dp2851
sg43
g26
(g27
(I0
tp2852
g29
tp2853
Rp2854
(I1
(I2
I2
tp2855
g36
I00
S'\x00\x00\x00\x00\x00\x00\xf0\x7f\x00\x00\x00\x00\x00\x00\xf0\x7f\x00\x00\x00\x00\x00\x00\xf0\xff\x00\x00\x00\x00\x00\x00\xf0\xff'
p2856
tp2857
bsg50
g26
(g27
(I0
tp2858
g29
tp2859
Rp2860
(I1
(I2
I2
tp2861
g36
I00
S'7\x84\xb6\x9d\x11\xdb\xef?\\E\x98\x05\x13\xf4\x0f@\xf2^\x92\x98;\t\x08@Q\xdd3}\xf6\x05\x18@'
p2862
tp2863
bsg57
I01
sg58
g59
sbsS'transData'
p2864
g70
sg1837
NsS'_sharey'
p2865
NsS'_sharex'
p2866
NsS'axesPatch'
p2867
g2180
sS'_ymargin'
p2868
F0.05
sS'_axes_locator'
p2869
NsS'numCols'
p2870
I1
sg1882
Nsg1897
I00
sS'yaxis'
p2871
g0
(cmatplotlib.axis
YAxis
p2872
g2
Ntp2873
Rp2874
(dp2875
g1793
g59
sg2251
g0
(g2252
g2
Ntp2876
Rp2877
(dp2878
g2256
g0
(g2257
g2
Ntp2879
Rp2880
(dp2881
g2261
I00
sg2262
I9
sg2263
(lp2882
I1
aI2
aI5
aI10
asg2265
Nsg2266
I00
sg2267
I01
sg2268
g2874
sbsg2269
g0
(g2270
g2
Ntp2883
Rp2884
(dp2885
g2274
g2275
sg2276
I0
sg2277
I00
sg2278
g59
sg2279
I00
sg2280
I01
sg2281
I0
sg1962
I00
sg2282
I01
sg2268
g2874
sbsbsg2283
I01
sg2284
g0
(g2285
g2
Ntp2886
Rp2887
sg1814
g1817
sg1813
I01
sg2288
I00
sg1819
Nsg1846
Nsg2289
I00
sg1823
g1824
sg1803
I01
sg1828
Nsg2290
g0
(g1809
g2
Ntp2888
Rp2889
(dp2890
g1793
g59
sg1813
I01
sg1814
g1817
sg1819
Nsg1935
g0
(g1936
g2
Ntp2891
Rp2892
(dp2893
g1940
(lp2894
g1942
asg1943
Nsg1944
g1945
sg1946
g1945
sg1947
g2298
sg1949
I400
sg1950
g1945
sbsg1846
Nsg1823
g1824
sg1951
Nsg1803
I01
sg1828
Nsg187
F0.5
sg188
I0
sg1829
Nsg1820
Nsg1832
I00
sg1833
I00
sg1834
(dp2895
sg1953
Nsg1836
I00
sg1886
Nsg1865
Nsg1885
Nsg1954
Nsg1837
Nsg1870
Nsg1863
I01
sg1955
Vbaseline
p2896
sg1957
V
p2897
sg1959
Nsg1855
Nsg1879
I0
sg1960
Nsg1880
I01
sg1882
Nsg1961
F1.2
sg60
g1433
sg1962
Nsg1963
I00
sg1847
Nsg1964
g1965
sg1966
Vleft
p2898
sg1838
Nsbsg1829
Nsg1820
Nsg2303
g0
(g1809
g2
Ntp2899
Rp2900
(dp2901
g1793
g59
sg1813
I01
sg1814
g1817
sg1819
Nsg1935
g0
(g1936
g2
Ntp2902
Rp2903
(dp2904
g1940
(lp2905
g1942
asg1943
Nsg1944
g1945
sg1946
g1945
sg1947
g2298
sg1949
I400
sg1950
g1945
sbsg1846
Nsg1823
g1824
sg1951
Nsg1803
I01
sg1828
Nsg187
F0.5
sg188
I0
sg1829
Nsg1820
Nsg1832
I00
sg1833
I00
sg1834
(dp2906
sg1953
Nsg1836
I00
sg1886
Nsg1865
Nsg1885
Nsg1954
Vanchor
p2907
sg1837
Nsg1870
Nsg1863
I01
sg1955
Vbottom
p2908
sg1957
V
p2909
sg1959
Nsg1855
Nsg1879
I0
sg1960
Vvertical
p2910
sg1880
I01
sg1882
Nsg1961
F1.2
sg60
g1276
sg1962
Nsg1963
I00
sg1847
Nsg1964
g1965
sg1966
Vcenter
p2911
sg1838
Nsbsg1832
I00
sg2315
I01
sg1833
I00
sg1834
(dp2912
sg2317
Nsg1836
I00
sg2318
g0
(g2252
g2
Ntp2913
Rp2914
(dp2915
g2256
g0
(g2322
g2
Ntp2916
Rp2917
(dp2918
g2268
g2874
sbsg2269
g0
(g2326
g2
Ntp2919
Rp2920
(dp2921
g2268
g2874
sbsbsg1886
g7
sg2330
(dp2922
g2332
I00
ssg2333
I01
sg1865
g619
sg1837
Nsg2334
I00
sg2335
I1
sg2336
F5.0
sg2337
(lp2923
g0
(cmatplotlib.axis
YTick
p2924
g2
Ntp2925
Rp2926
(dp2927
g1793
g59
sg1844
F0.5
sg1814
g1817
sg2343
I01
sg1813
I01
sg1819
Nsg1879
I0
sg1846
Nsg2344
F4.0
sg2345
g1965
sg2346
I00
sg1947
F4.0
sg1823
g1824
sg2347
g2348
sg2303
g0
(g1809
g2
Ntp2928
Rp2929
(dp2930
g1793
g59
sg1813
I01
sg1814
g1817
sg1819
Nsg1935
g0
(g1936
g2
Ntp2931
Rp2932
(dp2933
g1940
(lp2934
g1942
asg1943
Nsg1944
g1945
sg1946
g1945
sg1947
g2298
sg1949
I400
sg1950
g1945
sbsg1846
Nsg1823
g1824
sg1951
Nsg1803
I01
sg1828
Nsg187
I0
sg188
I0
sg1829
Nsg1820
Nsg1832
I00
sg1833
I00
sg1834
(dp2935
sg1953
Nsg1836
I00
sg1886
Nsg1865
Nsg1885
Nsg1954
Nsg1837
Nsg1870
Nsg1863
I01
sg1955
Vcenter
p2936
sg1957
V
p2937
sg1959
Nsg1855
Nsg1879
I0
sg1960
Nsg1880
I01
sg1882
Nsg1961
F1.2
sg60
g210
sg1962
Nsg1963
I00
sg1847
Nsg1964
g1965
sg1966
Vright
p2938
sg1838
Nsbsg1803
I01
sg1828
Nsg2360
I00
sg1829
Nsg1820
Nsg2361
I01
sg1832
I00
sg1833
I00
sg1834
(dp2939
sg2363
(I1
I0
tp2940
sg1836
I00
sg2365
F2.01
sg1886
g7
sg2366
I01
sg1865
g899
sg1885
Nsg2367
g2929
sg2368
g0
(g1809
g2
Ntp2941
Rp2942
(dp2943
g1793
g59
sg1813
I01
sg1814
g1817
sg1819
Nsg1935
g0
(g1936
g2
Ntp2944
Rp2945
(dp2946
g1940
(lp2947
g1942
asg1943
Nsg1944
g1945
sg1946
g1945
sg1947
g2298
sg1949
I400
sg1950
g1945
sbsg1846
Nsg1823
g1824
sg1951
Nsg1803
I01
sg1828
Nsg187
I0
sg188
I1
sg1829
Nsg1820
Nsg1832
I00
sg1833
I00
sg1834
(dp2948
sg1953
Nsg1836
I00
sg1886
Nsg1865
Nsg1885
Nsg1954
Nsg1837
Nsg1870
Nsg1863
I01
sg1955
Vcenter
p2949
sg1957
V
p2950
sg1959
Nsg1855
Nsg1879
I0
sg1960
Nsg1880
I01
sg1882
Nsg1961
F1.2
sg60
g192
sg1962
Nsg1963
I00
sg1847
Nsg1964
g1965
sg1966
Vleft
p2951
sg1838
Nsbsg1870
Nsg2380
I0
sg1863
I01
sg1855
Nsg2381
F4.0
sg2382
g0
(g2383
g2
Ntp2952
Rp2953
(dp2954
g1793
g59
sg1813
I01
sg2387
g2388
sg1814
g1817
sg2389
g2390
sg1978
Nsg1819
Nsg1846
Nsg1823
g1824
sg2391
g2392
sg1803
I01
sg2393
Nsg1828
Nsg187
Nsg188
Nsg1855
Nsg1829
Nsg1820
Nsg1832
I00
sg2394
Nsg1833
I00
sg1834
(dp2955
sg2396
Nsg1836
I00
sg2397
I00
sg1886
Nsg2398
Nsg2399
F0.5
sg2400
g2401
sg2402
Nsg1964
g1965
sg2403
g0
(g2404
g2
Ntp2956
Rp2957
(dp2958
g2403
I1
sg2408
Nsg2409
F1.0
sg60
g0
(g91
g2
Ntp2959
Rp2960
(dp2961
g14
I2
sg90
Nsg83
g26
(g27
(I0
tp2962
g29
tp2963
Rp2964
(I1
(I3
I3
tp2965
g36
I00
S'\x00\x00\x00\x00\x00\x00\xf0?\x00\x00\x00\x00\x00\x00\x00\x00\x00\x00\x00\x00\x00\x00\x00\x00\x00\x00\x00\x00\x00\x00\x00\x00\x00\x00\x00\x00\x00\x00\xf0?\x00\x00\x00\x00\x00\x00\x00\x00\x00\x00\x00\x00\x00\x00\x00\x00\x00\x00\x00\x00\x00\x00\x00\x00\x00\x00\x00\x00\x00\x00\xf0?'
p2966
tp2967
bsg58
g59
sg41
(dp2968
sbsg2420
I00
sg2421
g2422
sg2423
Nsg1883
g2424
sg1873
g2425
sg2426
g0
(g1999
g2
Ntp2969
Rp2970
(dp2971
g2003
I00
sg2004
Nsg2016
g26
(g27
(I0
tp2972
g29
tp2973
Rp2974
(I1
(I2
I2
tp2975
g36
I00
S'\x00\x00\x00\x00\x00\x00\x00\x00\x00\x00\x00\x00\x00\x00\x00\x00\x00\x00\x00\x00\x00\x00\xf0?\x00\x00\x00\x00\x00\x00\x00\x00'
p2976
tp2977
bsg2023
I00
sg2024
F0.1111111111111111
sg2025
I1
sg2026
I00
sbsbsg1837
Nsg2436
g2437
sg1867
I01
sg2438
g2439
sg1870
Nsg2440
F4.0
sg1863
I01
sg2441
Nsg1875
VNone
p2978
sg2443
(I0
tp2979
sg1879
I0
sg2445
g2446
sg2447
I0
sg2448
I5
sg1880
I01
sg1882
Nsg2449
g2392
sg2450
I01
sg60
g185
sg2451
I01
sg2129
F2.01
sg1847
Nsg1885
Nsg2452
(I0
tp2980
sg1865
Nsg1864
F1.0
sg1838
Nsg2426
Nsbsg1880
I00
sg2454
g0
(g2383
g2
Ntp2981
Rp2982
(dp2983
g1793
g59
sg1813
I01
sg2387
g2388
sg1814
g1817
sg2389
g2390
sg1978
Nsg1819
Nsg1846
Nsg1823
g1824
sg2391
g2392
sg1803
I01
sg2393
Nsg1828
Nsg187
g26
(g27
(I0
tp2984
g29
tp2985
Rp2986
(I1
(I2
tp2987
g36
I00
S'\x00\x00\x00\x00\x00\x00\x00\x00\x00\x00\x00\x00\x00\x00\x00\x00'
p2988
tp2989
bsg188
g26
(g27
(I0
tp2990
g29
tp2991
Rp2992
(I1
(I2
tp2993
g36
I00
S'\x00\x00\x00\x00\x00\x00\x00\x00\x00\x00\x00\x00\x00\x00\xf0?'
p2994
tp2995
bsg1855
Nsg1829
Nsg1820
Nsg1832
I00
sg2394
Nsg1833
I00
sg1834
(dp2996
sg2396
Nsg1836
I00
sg2397
I00
sg1886
Nsg2398
Nsg2399
F0.5
sg2400
g2401
sg2402
Nsg1964
g1965
sg2403
g0
(g2404
g2
Ntp2997
Rp2998
(dp2999
g2403
g2474
sg2408
Nsg2409
Nsg60
g0
(g1278
g2
Ntp3000
Rp3001
(dp3002
g14
I1
sg90
Nsg58
g59
sg41
(dp3003
sbsg2420
I00
sg2421
g2422
sg2423
Nsg1883
g2424
sg1873
g2425
sg2426
g0
(g1999
g2
Ntp3004
Rp3005
(dp3006
g2003
I00
sg2004
Nsg2016
g26
(g27
(I0
tp3007
g29
tp3008
Rp3009
(I1
(I0
I2
tp3010
g36
I00
g2486
tp3011
bsg2023
I00
sg2024
F0.1111111111111111
sg2025
I1
sg2026
I00
sbsbsg1837
Nsg2436
g2437
sg1867
I01
sg2438
g2439
sg1870
Nsg2440
F0.0
sg1863
I01
sg2441
g26
(g27
(I0
tp3012
g29
tp3013
Rp3014
(I1
(I2
I2
tp3015
g36
I00
S'\x00\x00\x00\x00\x00\x00\x00\x00\x00\x00\x00\x00\x00\x00\x00\x00\x00\x00\x00\x00\x00\x00\xf0?\x00\x00\x00\x00\x00\x00\x00\x00'
p3016
tp3017
bsg1875
g2494
sg2443
(I0
I1
tp3018
sg1879
I0
sg2445
g2446
sg2447
I0
sg2448
I5
sg1880
I01
sg1882
F1.0
sg2449
g2392
sg2450
I00
sg60
g185
sg2451
I00
sg1847
Nsg1885
Nsg2452
(I0
I0
tp3019
sg1865
g1633
sg1864
F0.5
sg1838
Nsg2426
g0
(g1999
g2
Ntp3020
Rp3021
(dp3022
g2003
I00
sg2004
Nsg2016
g3014
sg2023
I00
sg2024
F0.1111111111111111
sg2025
I180
sg2026
I00
sbsbsg1882
Nsg1837
Nsg2500
g0
(g2383
g2
Ntp3023
Rp3024
(dp3025
g1793
g59
sg1813
I01
sg2387
g2388
sg1814
g1817
sg2389
g2390
sg1978
Nsg1819
Nsg1846
Nsg1823
g1824
sg2391
g2392
sg1803
I01
sg2393
Nsg1828
Nsg187
Nsg188
Nsg1855
Nsg1829
Nsg1820
Nsg1832
I00
sg2394
Nsg1833
I00
sg1834
(dp3026
sg2396
Nsg1836
I00
sg2397
I00
sg1886
Nsg2398
Nsg2399
F0.5
sg2400
g2401
sg2402
Nsg1964
g1965
sg2403
g0
(g2404
g2
Ntp3027
Rp3028
(dp3029
g2403
I0
sg2408
Nsg2409
F1.0
sg60
g0
(g91
g2
Ntp3030
Rp3031
(dp3032
g14
I2
sg90
Nsg83
g26
(g27
(I0
tp3033
g29
tp3034
Rp3035
(I1
(I3
I3
tp3036
g36
I00
S'\x00\x00\x00\x00\x00\x00\xf0\xbf\x00\x00\x00\x00\x00\x00\x00\x00\x00\x00\x00\x00\x00\x00\x00\x00\x00\x00\x00\x00\x00\x00\x00\x00\x00\x00\x00\x00\x00\x00\xf0?\x00\x00\x00\x00\x00\x00\x00\x00\x00\x00\x00\x00\x00\x00\x00\x00\x00\x00\x00\x00\x00\x00\x00\x00\x00\x00\x00\x00\x00\x00\xf0?'
p3037
tp3038
bsg58
g59
sg41
(dp3039
sbsg2420
I00
sg2421
g2422
sg2423
Nsg1883
g2424
sg1873
g2425
sg2426
g2970
sbsg1837
Nsg2436
g2437
sg1867
I01
sg2438
g2439
sg1870
Nsg2440
F4.0
sg1863
I01
sg2441
Nsg1875
VNone
p3040
sg2443
(I1
tp3041
sg1879
I0
sg2445
g2446
sg2447
I0
sg2448
I5
sg1880
I01
sg1882
Nsg2449
g2392
sg2450
I01
sg60
g185
sg2451
I01
sg2129
F2.01
sg1847
Nsg1885
Nsg2452
(I0
tp3042
sg1865
Nsg1864
F1.0
sg1838
Nsg2426
Nsbsg60
Nsg2521
g2298
sg2522
Vytick
p3043
sg1847
Nsg1964
g1965
sg1838
Nsbag0
(g2924
g2
Ntp3044
Rp3045
(dp3046
g1793
g59
sg1844
F0.5
sg1814
g1817
sg2343
I01
sg1813
I01
sg1819
Nsg1879
I0
sg1846
Nsg2344
F4.0
sg2345
g1965
sg2346
I00
sg1947
F4.0
sg1823
g1824
sg2347
g2348
sg2303
g0
(g1809
g2
Ntp3047
Rp3048
(dp3049
g1793
g59
sg1813
I01
sg1814
g1817
sg1819
Nsg1935
g0
(g1936
g2
Ntp3050
Rp3051
(dp3052
g1940
(lp3053
g1942
asg1943
Nsg1944
g1945
sg1946
g1945
sg1947
g2298
sg1949
I400
sg1950
g1945
sbsg1846
Nsg1823
g1824
sg1951
Nsg1803
I01
sg1828
Nsg187
I0
sg188
I0
sg1829
Nsg1820
Nsg1832
I00
sg1833
I00
sg1834
(dp3054
sg1953
Nsg1836
I00
sg1886
Nsg1865
Nsg1885
Nsg1954
Nsg1837
Nsg1870
Nsg1863
I01
sg1955
g2936
sg1957
V
p3055
sg1959
Nsg1855
Nsg1879
I0
sg1960
Nsg1880
I01
sg1882
Nsg1961
F1.2
sg60
g201
sg1962
Nsg1963
I00
sg1847
Nsg1964
g1965
sg1966
g2938
sg1838
Nsbsg1803
I01
sg1828
Nsg2360
I00
sg1829
Nsg1820
Nsg2361
I01
sg1832
I00
sg1833
I00
sg1834
(dp3056
sg2363
(I1
I0
tp3057
sg1836
I00
sg2365
F2.01
sg1886
g7
sg2366
I01
sg1865
g479
sg1885
Nsg2367
g3048
sg2368
g0
(g1809
g2
Ntp3058
Rp3059
(dp3060
g1793
g59
sg1813
I01
sg1814
g1817
sg1819
Nsg1935
g0
(g1936
g2
Ntp3061
Rp3062
(dp3063
g1940
(lp3064
g1942
asg1943
Nsg1944
g1945
sg1946
g1945
sg1947
g2298
sg1949
I400
sg1950
g1945
sbsg1846
Nsg1823
g1824
sg1951
Nsg1803
I01
sg1828
Nsg187
I0
sg188
I1
sg1829
Nsg1820
Nsg1832
I00
sg1833
I00
sg1834
(dp3065
sg1953
Nsg1836
I00
sg1886
Nsg1865
Nsg1885
Nsg1954
Nsg1837
Nsg1870
Nsg1863
I01
sg1955
g2949
sg1957
V
p3066
sg1959
Nsg1855
Nsg1879
I0
sg1960
Nsg1880
I01
sg1882
Nsg1961
F1.2
sg60
g228
sg1962
Nsg1963
I00
sg1847
Nsg1964
g1965
sg1966
g2951
sg1838
Nsbsg1870
Nsg2380
I0
sg1863
I01
sg1855
Nsg2381
F4.0
sg2382
g0
(g2383
g2
Ntp3067
Rp3068
(dp3069
g1793
g59
sg1813
I01
sg2387
g2388
sg1814
g1817
sg2389
g2390
sg1978
Nsg1819
Nsg1846
Nsg1823
g1824
sg2391
g2392
sg1803
I01
sg2393
Nsg1828
Nsg187
Nsg188
Nsg1855
Nsg1829
Nsg1820
Nsg1832
I00
sg2394
Nsg1833
I00
sg1834
(dp3070
sg2396
Nsg1836
I00
sg2397
I00
sg1886
Nsg2398
Nsg2399
F0.5
sg2400
g2401
sg2402
Nsg1964
g1965
sg2403
g0
(g2404
g2
Ntp3071
Rp3072
(dp3073
g2403
I1
sg2408
Nsg2409
F1.0
sg60
g0
(g91
g2
Ntp3074
Rp3075
(dp3076
g14
I2
sg90
Nsg83
g26
(g27
(I0
tp3077
g29
tp3078
Rp3079
(I1
(I3
I3
tp3080
g36
I00
S'\x00\x00\x00\x00\x00\x00\xf0?\x00\x00\x00\x00\x00\x00\x00\x00\x00\x00\x00\x00\x00\x00\x00\x00\x00\x00\x00\x00\x00\x00\x00\x00\x00\x00\x00\x00\x00\x00\xf0?\x00\x00\x00\x00\x00\x00\x00\x00\x00\x00\x00\x00\x00\x00\x00\x00\x00\x00\x00\x00\x00\x00\x00\x00\x00\x00\x00\x00\x00\x00\xf0?'
p3081
tp3082
bsg58
g59
sg41
(dp3083
sbsg2420
I00
sg2421
g2422
sg2423
Nsg1883
g2424
sg1873
g2425
sg2426
g2970
sbsg1837
Nsg2436
g2437
sg1867
I01
sg2438
g2439
sg1870
Nsg2440
F4.0
sg1863
I01
sg2441
Nsg1875
g2978
sg2443
g2979
sg1879
I0
sg2445
g2446
sg2447
I0
sg2448
I5
sg1880
I01
sg1882
Nsg2449
g2392
sg2450
I01
sg60
g185
sg2451
I01
sg2129
F2.01
sg1847
Nsg1885
Nsg2452
(I0
tp3084
sg1865
Nsg1864
F1.0
sg1838
Nsg2426
Nsbsg1880
I00
sg2454
g0
(g2383
g2
Ntp3085
Rp3086
(dp3087
g1793
g59
sg1813
I01
sg2387
g2388
sg1814
g1817
sg2389
g2390
sg1978
Nsg1819
Nsg1846
Nsg1823
g1824
sg2391
g2392
sg1803
I01
sg2393
Nsg1828
Nsg187
g26
(g27
(I0
tp3088
g29
tp3089
Rp3090
(I1
(I2
tp3091
g36
I00
S'\x00\x00\x00\x00\x00\x00\x00\x00\x00\x00\x00\x00\x00\x00\x00\x00'
p3092
tp3093
bsg188
g26
(g27
(I0
tp3094
g29
tp3095
Rp3096
(I1
(I2
tp3097
g36
I00
S'\x00\x00\x00\x00\x00\x00\x00\x00\x00\x00\x00\x00\x00\x00\xf0?'
p3098
tp3099
bsg1855
Nsg1829
Nsg1820
Nsg1832
I00
sg2394
Nsg1833
I00
sg1834
(dp3100
sg2396
Nsg1836
I00
sg2397
I00
sg1886
Nsg2398
Nsg2399
F0.5
sg2400
g2401
sg2402
Nsg1964
g1965
sg2403
g0
(g2404
g2
Ntp3101
Rp3102
(dp3103
g2403
g2474
sg2408
Nsg2409
Nsg60
g0
(g1278
g2
Ntp3104
Rp3105
(dp3106
g14
I1
sg90
Nsg58
g59
sg41
(dp3107
sbsg2420
I00
sg2421
g2422
sg2423
Nsg1883
g2424
sg1873
g2425
sg2426
g0
(g1999
g2
Ntp3108
Rp3109
(dp3110
g2003
I00
sg2004
Nsg2016
g26
(g27
(I0
tp3111
g29
tp3112
Rp3113
(I1
(I0
I2
tp3114
g36
I00
g2486
tp3115
bsg2023
I00
sg2024
F0.1111111111111111
sg2025
I1
sg2026
I00
sbsbsg1837
Nsg2436
g2437
sg1867
I01
sg2438
g2439
sg1870
Nsg2440
F0.0
sg1863
I01
sg2441
g26
(g27
(I0
tp3116
g29
tp3117
Rp3118
(I1
(I2
I2
tp3119
g36
I00
S'\x00\x00\x00\x00\x00\x00\x00\x00\x00\x00\x00\x00\x00\x00\x00\x00\x00\x00\x00\x00\x00\x00\xf0?\x00\x00\x00\x00\x00\x00\x00\x00'
p3120
tp3121
bsg1875
g2494
sg2443
g3018
sg1879
I0
sg2445
g2446
sg2447
I0
sg2448
I5
sg1880
I01
sg1882
F1.0
sg2449
g2392
sg2450
I00
sg60
g185
sg2451
I00
sg1847
Nsg1885
Nsg2452
g3019
sg1865
g549
sg1864
F0.5
sg1838
Nsg2426
g0
(g1999
g2
Ntp3122
Rp3123
(dp3124
g2003
I00
sg2004
Nsg2016
g3118
sg2023
I00
sg2024
F0.1111111111111111
sg2025
I180
sg2026
I00
sbsbsg1882
Nsg1837
Nsg2500
g0
(g2383
g2
Ntp3125
Rp3126
(dp3127
g1793
g59
sg1813
I01
sg2387
g2388
sg1814
g1817
sg2389
g2390
sg1978
Nsg1819
Nsg1846
Nsg1823
g1824
sg2391
g2392
sg1803
I01
sg2393
Nsg1828
Nsg187
Nsg188
Nsg1855
Nsg1829
Nsg1820
Nsg1832
I00
sg2394
Nsg1833
I00
sg1834
(dp3128
sg2396
Nsg1836
I00
sg2397
I00
sg1886
Nsg2398
Nsg2399
F0.5
sg2400
g2401
sg2402
Nsg1964
g1965
sg2403
g0
(g2404
g2
Ntp3129
Rp3130
(dp3131
g2403
I0
sg2408
Nsg2409
F1.0
sg60
g0
(g91
g2
Ntp3132
Rp3133
(dp3134
g14
I2
sg90
Nsg83
g26
(g27
(I0
tp3135
g29
tp3136
Rp3137
(I1
(I3
I3
tp3138
g36
I00
S'\x00\x00\x00\x00\x00\x00\xf0\xbf\x00\x00\x00\x00\x00\x00\x00\x00\x00\x00\x00\x00\x00\x00\x00\x00\x00\x00\x00\x00\x00\x00\x00\x00\x00\x00\x00\x00\x00\x00\xf0?\x00\x00\x00\x00\x00\x00\x00\x00\x00\x00\x00\x00\x00\x00\x00\x00\x00\x00\x00\x00\x00\x00\x00\x00\x00\x00\x00\x00\x00\x00\xf0?'
p3139
tp3140
bsg58
g59
sg41
(dp3141
sbsg2420
I00
sg2421
g2422
sg2423
Nsg1883
g2424
sg1873
g2425
sg2426
g2970
sbsg1837
Nsg2436
g2437
sg1867
I01
sg2438
g2439
sg1870
Nsg2440
F4.0
sg1863
I01
sg2441
Nsg1875
g3040
sg2443
g3041
sg1879
I0
sg2445
g2446
sg2447
I0
sg2448
I5
sg1880
I01
sg1882
Nsg2449
g2392
sg2450
I01
sg60
g185
sg2451
I01
sg2129
F2.01
sg1847
Nsg1885
Nsg2452
(I0
tp3142
sg1865
Nsg1864
F1.0
sg1838
Nsg2426
Nsbsg60
Nsg2521
g2298
sg2522
g3043
sg1847
Nsg1964
g1965
sg1838
Nsbasg2623
I01
sg1893
g0
(g1894
g2
Ntp3143
Rp3144
sg1870
Nsg1863
I01
sg2626
I01
sg1855
Nsg1879
I0
sg2627
I1
sg2628
Nsg1880
I00
sg1882
Nsg2629
g2898
sg60
Nsg2631
Vleft
p3145
sg1847
Nsg1885
Nsg2448
I15
sg2633
(lp3146
g0
(g2924
g2
Ntp3147
Rp3148
(dp3149
g1793
g59
sg1844
F0.5
sg1814
g1817
sg2343
I01
sg1813
I01
sg1819
Nsg1879
I0
sg1846
Nsg2344
F4.0
sg2345
g1965
sg2346
I00
sg1947
F2.0
sg1823
g1824
sg2347
g2348
sg2303
g0
(g1809
g2
Ntp3150
Rp3151
(dp3152
g1793
g59
sg1813
I01
sg1814
g1817
sg1819
Nsg1935
g0
(g1936
g2
Ntp3153
Rp3154
(dp3155
g1940
(lp3156
g1942
asg1943
Nsg1944
g1945
sg1946
g1945
sg1947
g2298
sg1949
I400
sg1950
g1945
sbsg1846
Nsg1823
g1824
sg1951
Nsg1803
I01
sg1828
Nsg187
I0
sg188
I0
sg1829
Nsg1820
Nsg1832
I00
sg1833
I00
sg1834
(dp3157
sg1953
Nsg1836
I00
sg1886
Nsg1865
Nsg1885
Nsg1954
Nsg1837
Nsg1870
Nsg1863
I01
sg1955
g2936
sg1957
V
p3158
sg1959
Nsg1855
Nsg1879
I0
sg1960
Nsg1880
I01
sg1882
Nsg1961
F1.2
sg60
g237
sg1962
Nsg1963
I00
sg1847
Nsg1964
g1965
sg1966
g2938
sg1838
Nsbsg1803
I01
sg1828
Nsg2360
I00
sg1829
Nsg1820
Nsg2361
I01
sg1832
I00
sg1833
I00
sg1834
(dp3159
sg2363
(I1
I0
tp3160
sg1836
I00
sg2365
I2
sg1886
g7
sg2366
I01
sg1865
g1039
sg1885
Nsg2367
g3151
sg2368
g0
(g1809
g2
Ntp3161
Rp3162
(dp3163
g1793
g59
sg1813
I01
sg1814
g1817
sg1819
Nsg1935
g0
(g1936
g2
Ntp3164
Rp3165
(dp3166
g1940
(lp3167
g1942
asg1943
Nsg1944
g1945
sg1946
g1945
sg1947
g2298
sg1949
I400
sg1950
g1945
sbsg1846
Nsg1823
g1824
sg1951
Nsg1803
I01
sg1828
Nsg187
I0
sg188
I1
sg1829
Nsg1820
Nsg1832
I00
sg1833
I00
sg1834
(dp3168
sg1953
Nsg1836
I00
sg1886
Nsg1865
Nsg1885
Nsg1954
Nsg1837
Nsg1870
Nsg1863
I01
sg1955
g2949
sg1957
V
p3169
sg1959
Nsg1855
Nsg1879
I0
sg1960
Nsg1880
I01
sg1882
Nsg1961
F1.2
sg60
g219
sg1962
Nsg1963
I00
sg1847
Nsg1964
g1965
sg1966
g2951
sg1838
Nsbsg1870
Nsg2380
I0
sg1863
I01
sg1855
Nsg2381
F4.0
sg2382
g0
(g2383
g2
Ntp3170
Rp3171
(dp3172
g1793
g59
sg1813
I01
sg2387
g2388
sg1814
g1817
sg2389
g2390
sg1978
Nsg1819
Nsg1846
Nsg1823
g1824
sg2391
g2392
sg1803
I01
sg2393
Nsg1828
Nsg187
Nsg188
Nsg1855
Nsg1829
Nsg1820
Nsg1832
I00
sg2394
Nsg1833
I00
sg1834
(dp3173
sg2396
Nsg1836
I00
sg2397
I00
sg1886
Nsg2398
Nsg2399
F0.5
sg2400
g2401
sg2402
Nsg1964
g1965
sg2403
g0
(g2404
g2
Ntp3174
Rp3175
(dp3176
g2403
I1
sg2408
Nsg2409
F1.0
sg60
g0
(g91
g2
Ntp3177
Rp3178
(dp3179
g14
I2
sg90
Nsg83
g26
(g27
(I0
tp3180
g29
tp3181
Rp3182
(I1
(I3
I3
tp3183
g36
I00
S'\x00\x00\x00\x00\x00\x00\xf0?\x00\x00\x00\x00\x00\x00\x00\x00\x00\x00\x00\x00\x00\x00\x00\x00\x00\x00\x00\x00\x00\x00\x00\x00\x00\x00\x00\x00\x00\x00\xf0?\x00\x00\x00\x00\x00\x00\x00\x00\x00\x00\x00\x00\x00\x00\x00\x00\x00\x00\x00\x00\x00\x00\x00\x00\x00\x00\x00\x00\x00\x00\xf0?'
p3184
tp3185
bsg58
g59
sg41
(dp3186
sbsg2420
I00
sg2421
g2422
sg2423
Nsg1883
g2424
sg1873
g2425
sg2426
g2970
sbsg1837
Nsg2436
g2437
sg1867
I01
sg2438
g2439
sg1870
Nsg2440
F2.0
sg1863
I01
sg2441
Nsg1875
g2978
sg2443
g2979
sg1879
I0
sg2445
g2446
sg2447
I0
sg2448
I5
sg1880
I01
sg1882
Nsg2449
g2392
sg2450
I01
sg60
g185
sg2451
I01
sg2129
I2
sg1847
Nsg1885
Nsg2452
(I0
tp3187
sg1865
Nsg1864
F1.0
sg1838
Nsg2426
Nsbsg1880
I00
sg2454
g0
(g2383
g2
Ntp3188
Rp3189
(dp3190
g1793
g59
sg1813
I01
sg2387
g2388
sg1814
g1817
sg2389
g2390
sg1978
Nsg1819
Nsg1846
Nsg1823
g1824
sg2391
g2392
sg1803
I01
sg2393
Nsg1828
Nsg187
g26
(g27
(I0
tp3191
g29
tp3192
Rp3193
(I1
(I2
tp3194
g36
I00
S'\x00\x00\x00\x00\x00\x00\x00\x00\x00\x00\x00\x00\x00\x00\x00\x00'
p3195
tp3196
bsg188
g26
(g27
(I0
tp3197
g29
tp3198
Rp3199
(I1
(I2
tp3200
g36
I00
S'\x00\x00\x00\x00\x00\x00\x00\x00\x00\x00\x00\x00\x00\x00\xf0?'
p3201
tp3202
bsg1855
Nsg1829
Nsg1820
Nsg1832
I00
sg2394
Nsg1833
I00
sg1834
(dp3203
sg2396
Nsg1836
I00
sg2397
I00
sg1886
Nsg2398
Nsg2399
F0.5
sg2400
g2401
sg2402
Nsg1964
g1965
sg2403
g0
(g2404
g2
Ntp3204
Rp3205
(dp3206
g2403
g2474
sg2408
Nsg2409
Nsg60
g0
(g1278
g2
Ntp3207
Rp3208
(dp3209
g14
I1
sg90
Nsg58
g59
sg41
(dp3210
sbsg2420
I00
sg2421
g2422
sg2423
Nsg1883
g2424
sg1873
g2425
sg2426
g0
(g1999
g2
Ntp3211
Rp3212
(dp3213
g2003
I00
sg2004
Nsg2016
g26
(g27
(I0
tp3214
g29
tp3215
Rp3216
(I1
(I0
I2
tp3217
g36
I00
g2486
tp3218
bsg2023
I00
sg2024
F0.1111111111111111
sg2025
I1
sg2026
I00
sbsbsg1837
Nsg2436
g2437
sg1867
I01
sg2438
g2439
sg1870
Nsg2440
F0.0
sg1863
I01
sg2441
g26
(g27
(I0
tp3219
g29
tp3220
Rp3221
(I1
(I2
I2
tp3222
g36
I00
S'\x00\x00\x00\x00\x00\x00\x00\x00\x00\x00\x00\x00\x00\x00\x00\x00\x00\x00\x00\x00\x00\x00\xf0?\x00\x00\x00\x00\x00\x00\x00\x00'
p3223
tp3224
bsg1875
g2494
sg2443
g3018
sg1879
I0
sg2445
g2446
sg2447
I0
sg2448
I5
sg1880
I01
sg1882
F1.0
sg2449
g2392
sg2450
I00
sg60
g185
sg2451
I00
sg1847
Nsg1885
Nsg2452
g3019
sg1865
g1407
sg1864
F0.5
sg1838
Nsg2426
g0
(g1999
g2
Ntp3225
Rp3226
(dp3227
g2003
I00
sg2004
Nsg2016
g3221
sg2023
I00
sg2024
F0.1111111111111111
sg2025
I180
sg2026
I00
sbsbsg1882
Nsg1837
Nsg2500
g0
(g2383
g2
Ntp3228
Rp3229
(dp3230
g1793
g59
sg1813
I01
sg2387
g2388
sg1814
g1817
sg2389
g2390
sg1978
Nsg1819
Nsg1846
Nsg1823
g1824
sg2391
g2392
sg1803
I01
sg2393
Nsg1828
Nsg187
Nsg188
Nsg1855
Nsg1829
Nsg1820
Nsg1832
I00
sg2394
Nsg1833
I00
sg1834
(dp3231
sg2396
Nsg1836
I00
sg2397
I00
sg1886
Nsg2398
Nsg2399
F0.5
sg2400
g2401
sg2402
Nsg1964
g1965
sg2403
g0
(g2404
g2
Ntp3232
Rp3233
(dp3234
g2403
I0
sg2408
Nsg2409
F1.0
sg60
g0
(g91
g2
Ntp3235
Rp3236
(dp3237
g14
I2
sg90
Nsg83
g26
(g27
(I0
tp3238
g29
tp3239
Rp3240
(I1
(I3
I3
tp3241
g36
I00
S'\x00\x00\x00\x00\x00\x00\xf0\xbf\x00\x00\x00\x00\x00\x00\x00\x00\x00\x00\x00\x00\x00\x00\x00\x00\x00\x00\x00\x00\x00\x00\x00\x00\x00\x00\x00\x00\x00\x00\xf0?\x00\x00\x00\x00\x00\x00\x00\x00\x00\x00\x00\x00\x00\x00\x00\x00\x00\x00\x00\x00\x00\x00\x00\x00\x00\x00\x00\x00\x00\x00\xf0?'
p3242
tp3243
bsg58
g59
sg41
(dp3244
sbsg2420
I00
sg2421
g2422
sg2423
Nsg1883
g2424
sg1873
g2425
sg2426
g2970
sbsg1837
Nsg2436
g2437
sg1867
I01
sg2438
g2439
sg1870
Nsg2440
F2.0
sg1863
I01
sg2441
Nsg1875
g3040
sg2443
g3041
sg1879
I0
sg2445
g2446
sg2447
I0
sg2448
I5
sg1880
I01
sg1882
Nsg2449
g2392
sg2450
I01
sg60
g185
sg2451
I01
sg2129
I2
sg1847
Nsg1885
Nsg2452
(I0
tp3245
sg1865
Nsg1864
F1.0
sg1838
Nsg2426
Nsbsg60
Nsg2521
g2298
sg2522
g3043
sg1847
Nsg1964
g1965
sg1838
Nsbag0
(g2924
g2
Ntp3246
Rp3247
(dp3248
g1793
g59
sg1844
F0.5
sg1814
g1817
sg2343
I01
sg1813
I01
sg1819
Nsg1879
I0
sg1846
Nsg2344
F4.0
sg2345
g1965
sg2346
I00
sg1947
F2.0
sg1823
g1824
sg2347
g2348
sg2303
g0
(g1809
g2
Ntp3249
Rp3250
(dp3251
g1793
g59
sg1813
I01
sg1814
g1817
sg1819
Nsg1935
g0
(g1936
g2
Ntp3252
Rp3253
(dp3254
g1940
(lp3255
g1942
asg1943
Nsg1944
g1945
sg1946
g1945
sg1947
g2298
sg1949
I400
sg1950
g1945
sbsg1846
Nsg1823
g1824
sg1951
Nsg1803
I01
sg1828
Nsg187
I0
sg188
I0
sg1829
Nsg1820
Nsg1832
I00
sg1833
I00
sg1834
(dp3256
sg1953
Nsg1836
I00
sg1886
Nsg1865
Nsg1885
Nsg1954
Nsg1837
Nsg1870
Nsg1863
I01
sg1955
g2936
sg1957
V
p3257
sg1959
Nsg1855
Nsg1879
I0
sg1960
Nsg1880
I01
sg1882
Nsg1961
F1.2
sg60
g246
sg1962
Nsg1963
I00
sg1847
Nsg1964
g1965
sg1966
g2938
sg1838
Nsbsg1803
I01
sg1828
Nsg2360
I00
sg1829
Nsg1820
Nsg2361
I01
sg1832
I00
sg1833
I00
sg1834
(dp3258
sg2363
(I1
I0
tp3259
sg1836
I00
sg2365
I2
sg1886
g7
sg2366
I01
sg1865
g1493
sg1885
Nsg2367
g3250
sg2368
g0
(g1809
g2
Ntp3260
Rp3261
(dp3262
g1793
g59
sg1813
I01
sg1814
g1817
sg1819
Nsg1935
g0
(g1936
g2
Ntp3263
Rp3264
(dp3265
g1940
(lp3266
g1942
asg1943
Nsg1944
g1945
sg1946
g1945
sg1947
g2298
sg1949
I400
sg1950
g1945
sbsg1846
Nsg1823
g1824
sg1951
Nsg1803
I01
sg1828
Nsg187
I0
sg188
I1
sg1829
Nsg1820
Nsg1832
I00
sg1833
I00
sg1834
(dp3267
sg1953
Nsg1836
I00
sg1886
Nsg1865
Nsg1885
Nsg1954
Nsg1837
Nsg1870
Nsg1863
I01
sg1955
g2949
sg1957
V
p3268
sg1959
Nsg1855
Nsg1879
I0
sg1960
Nsg1880
I01
sg1882
Nsg1961
F1.2
sg60
g181
sg1962
Nsg1963
I00
sg1847
Nsg1964
g1965
sg1966
g2951
sg1838
Nsbsg1870
Nsg2380
I0
sg1863
I01
sg1855
Nsg2381
F4.0
sg2382
g0
(g2383
g2
Ntp3269
Rp3270
(dp3271
g1793
g59
sg1813
I01
sg2387
g2388
sg1814
g1817
sg2389
g2390
sg1978
Nsg1819
Nsg1846
Nsg1823
g1824
sg2391
g2392
sg1803
I01
sg2393
Nsg1828
Nsg187
Nsg188
Nsg1855
Nsg1829
Nsg1820
Nsg1832
I00
sg2394
Nsg1833
I00
sg1834
(dp3272
sg2396
Nsg1836
I00
sg2397
I00
sg1886
Nsg2398
Nsg2399
F0.5
sg2400
g2401
sg2402
Nsg1964
g1965
sg2403
g0
(g2404
g2
Ntp3273
Rp3274
(dp3275
g2403
I1
sg2408
Nsg2409
F1.0
sg60
g0
(g91
g2
Ntp3276
Rp3277
(dp3278
g14
I2
sg90
Nsg83
g26
(g27
(I0
tp3279
g29
tp3280
Rp3281
(I1
(I3
I3
tp3282
g36
I00
S'\x00\x00\x00\x00\x00\x00\xf0?\x00\x00\x00\x00\x00\x00\x00\x00\x00\x00\x00\x00\x00\x00\x00\x00\x00\x00\x00\x00\x00\x00\x00\x00\x00\x00\x00\x00\x00\x00\xf0?\x00\x00\x00\x00\x00\x00\x00\x00\x00\x00\x00\x00\x00\x00\x00\x00\x00\x00\x00\x00\x00\x00\x00\x00\x00\x00\x00\x00\x00\x00\xf0?'
p3283
tp3284
bsg58
g59
sg41
(dp3285
sbsg2420
I00
sg2421
g2422
sg2423
Nsg1883
g2424
sg1873
g2425
sg2426
g2970
sbsg1837
Nsg2436
g2437
sg1867
I01
sg2438
g2439
sg1870
Nsg2440
F2.0
sg1863
I01
sg2441
Nsg1875
g2978
sg2443
g2979
sg1879
I0
sg2445
g2446
sg2447
I0
sg2448
I5
sg1880
I01
sg1882
Nsg2449
g2392
sg2450
I01
sg60
g185
sg2451
I01
sg2129
I2
sg1847
Nsg1885
Nsg2452
(I0
tp3286
sg1865
Nsg1864
F1.0
sg1838
Nsg2426
Nsbsg1880
I00
sg2454
g0
(g2383
g2
Ntp3287
Rp3288
(dp3289
g1793
g59
sg1813
I01
sg2387
g2388
sg1814
g1817
sg2389
g2390
sg1978
Nsg1819
Nsg1846
Nsg1823
g1824
sg2391
g2392
sg1803
I01
sg2393
Nsg1828
Nsg187
g26
(g27
(I0
tp3290
g29
tp3291
Rp3292
(I1
(I2
tp3293
g36
I00
S'\x00\x00\x00\x00\x00\x00\x00\x00\x00\x00\x00\x00\x00\x00\x00\x00'
p3294
tp3295
bsg188
g26
(g27
(I0
tp3296
g29
tp3297
Rp3298
(I1
(I2
tp3299
g36
I00
S'\x00\x00\x00\x00\x00\x00\x00\x00\x00\x00\x00\x00\x00\x00\xf0?'
p3300
tp3301
bsg1855
Nsg1829
Nsg1820
Nsg1832
I00
sg2394
Nsg1833
I00
sg1834
(dp3302
sg2396
Nsg1836
I00
sg2397
I00
sg1886
Nsg2398
Nsg2399
F0.5
sg2400
g2401
sg2402
Nsg1964
g1965
sg2403
g0
(g2404
g2
Ntp3303
Rp3304
(dp3305
g2403
g2474
sg2408
Nsg2409
Nsg60
g0
(g1278
g2
Ntp3306
Rp3307
(dp3308
g14
I1
sg90
Nsg58
g59
sg41
(dp3309
sbsg2420
I00
sg2421
g2422
sg2423
Nsg1883
g2424
sg1873
g2425
sg2426
g0
(g1999
g2
Ntp3310
Rp3311
(dp3312
g2003
I00
sg2004
Nsg2016
g26
(g27
(I0
tp3313
g29
tp3314
Rp3315
(I1
(I0
I2
tp3316
g36
I00
g2486
tp3317
bsg2023
I00
sg2024
F0.1111111111111111
sg2025
I1
sg2026
I00
sbsbsg1837
Nsg2436
g2437
sg1867
I01
sg2438
g2439
sg1870
Nsg2440
F0.0
sg1863
I01
sg2441
g26
(g27
(I0
tp3318
g29
tp3319
Rp3320
(I1
(I2
I2
tp3321
g36
I00
S'\x00\x00\x00\x00\x00\x00\x00\x00\x00\x00\x00\x00\x00\x00\x00\x00\x00\x00\x00\x00\x00\x00\xf0?\x00\x00\x00\x00\x00\x00\x00\x00'
p3322
tp3323
bsg1875
g2494
sg2443
g3018
sg1879
I0
sg2445
g2446
sg2447
I0
sg2448
I5
sg1880
I01
sg1882
F1.0
sg2449
g2392
sg2450
I00
sg60
g185
sg2451
I00
sg1847
Nsg1885
Nsg2452
g3019
sg1865
g1703
sg1864
F0.5
sg1838
Nsg2426
g0
(g1999
g2
Ntp3324
Rp3325
(dp3326
g2003
I00
sg2004
Nsg2016
g3320
sg2023
I00
sg2024
F0.1111111111111111
sg2025
I180
sg2026
I00
sbsbsg1882
Nsg1837
Nsg2500
g0
(g2383
g2
Ntp3327
Rp3328
(dp3329
g1793
g59
sg1813
I01
sg2387
g2388
sg1814
g1817
sg2389
g2390
sg1978
Nsg1819
Nsg1846
Nsg1823
g1824
sg2391
g2392
sg1803
I01
sg2393
Nsg1828
Nsg187
Nsg188
Nsg1855
Nsg1829
Nsg1820
Nsg1832
I00
sg2394
Nsg1833
I00
sg1834
(dp3330
sg2396
Nsg1836
I00
sg2397
I00
sg1886
Nsg2398
Nsg2399
F0.5
sg2400
g2401
sg2402
Nsg1964
g1965
sg2403
g0
(g2404
g2
Ntp3331
Rp3332
(dp3333
g2403
I0
sg2408
Nsg2409
F1.0
sg60
g0
(g91
g2
Ntp3334
Rp3335
(dp3336
g14
I2
sg90
Nsg83
g26
(g27
(I0
tp3337
g29
tp3338
Rp3339
(I1
(I3
I3
tp3340
g36
I00
S'\x00\x00\x00\x00\x00\x00\xf0\xbf\x00\x00\x00\x00\x00\x00\x00\x00\x00\x00\x00\x00\x00\x00\x00\x00\x00\x00\x00\x00\x00\x00\x00\x00\x00\x00\x00\x00\x00\x00\xf0?\x00\x00\x00\x00\x00\x00\x00\x00\x00\x00\x00\x00\x00\x00\x00\x00\x00\x00\x00\x00\x00\x00\x00\x00\x00\x00\x00\x00\x00\x00\xf0?'
p3341
tp3342
bsg58
g59
sg41
(dp3343
sbsg2420
I00
sg2421
g2422
sg2423
Nsg1883
g2424
sg1873
g2425
sg2426
g2970
sbsg1837
Nsg2436
g2437
sg1867
I01
sg2438
g2439
sg1870
Nsg2440
F2.0
sg1863
I01
sg2441
Nsg1875
g3040
sg2443
g3041
sg1879
I0
sg2445
g2446
sg2447
I0
sg2448
I5
sg1880
I01
sg1882
Nsg2449
g2392
sg2450
I01
sg60
g185
sg2451
I01
sg2129
I2
sg1847
Nsg1885
Nsg2452
(I0
tp3344
sg1865
Nsg1864
F1.0
sg1838
Nsg2426
Nsbsg60
Nsg2521
g2298
sg2522
g3043
sg1847
Nsg1964
g1965
sg1838
Nsbasg1838
Nsg2833
(dp3345
sg2835
I01
sbsS'_axisbelow'
p3346
I00
sg1813
I01
sg1917
(lp3347
sS'_ycid'
p3348
I1
sS'spines'
p3349
(dp3350
Vtop
p3351
g0
(cmatplotlib.spines
Spine
p3352
g2
Ntp3353
Rp3354
(dp3355
g1793
g59
sg2289
I00
sg1845
I01
sg1814
g1817
sS'_bounds'
p3356
Nsg1813
I01
sg1819
Nsg1846
Nsg1823
g1824
sg1847
Nsg1803
I01
sg2268
g2249
sg1848
g0
(g1278
g2
Ntp3357
Rp3358
(dp3359
g14
I1
sg90
Nsg58
g59
sg41
(dp3360
sbsg1853
(F0.0
F0.0
F0.0
F1.0
tp3361
sg1828
Nsg1855
Nsg1829
Nsg1820
Nsg1832
I00
sg1833
I00
sg1834
(dp3362
sg2217
(Voutward
p3363
F0.0
tp3364
sg1836
I00
sg1862
Nsg1863
I01
sg1864
F1.0
sS'_patch_type'
p3365
Vline
p3366
sg1837
Nsg1867
I01
sg1868
Vnone
p3367
sg1870
Nsg1871
g2186
sg1873
g1874
sS'_patch_transform'
p3368
g0
(g1278
g2
Ntp3369
Rp3370
(dp3371
g14
I1
sg90
Nsg58
g59
sg41
(dp3372
sbsg1875
g1876
sg1877
g1965
sg1879
I0
sS'_spine_transform'
p3373
(Videntity
p3374
g0
(g1278
g2
Ntp3375
Rp3376
(dp3377
g14
I1
sg90
Nsg58
g59
sg41
(dp3378
sbtp3379
sg1880
I01
sg1882
NsS'spine_type'
p3380
g3351
sg60
g264
sg1865
Nsg2129
F2.5
sg1883
Vprojecting
p3381
sg1885
Nsg1886
g7
sg1838
Nsg2426
g0
(g1999
g2
Ntp3382
Rp3383
(dp3384
g2003
I00
sg2004
Nsg2016
g26
(g27
(I0
tp3385
g29
tp3386
Rp3387
(I1
(I2
I2
tp3388
g36
I00
S'\x00\x00\x00\x00\x00\x00*@\x00\x00\x00\x00\x00\x00\xf0?\x00\x00\x00\x00\x00\x00*@\x00\x00\x00\x00\x00\x00\xf0?'
p3389
tp3390
bsg2023
I00
sg2024
F0.1111111111111111
sg2025
I1
sg2026
I00
sbsbsVright
p3391
g0
(g3352
g2
Ntp3392
Rp3393
(dp3394
g1793
g59
sg2289
I00
sg1845
I01
sg1814
g1817
sg3356
Nsg1813
I01
sg1819
Nsg1846
Nsg1823
g1824
sg1847
Nsg1803
I01
sg2268
g2874
sg1848
g0
(g1278
g2
Ntp3395
Rp3396
(dp3397
g14
I1
sg90
Nsg58
g59
sg41
(dp3398
sbsg1853
(F0.0
F0.0
F0.0
F1.0
tp3399
sg1828
Nsg1855
Nsg1829
Nsg1820
Nsg1832
I00
sg1833
I00
sg1834
(dp3400
sg2217
g3364
sg1836
I00
sg1862
Nsg1863
I01
sg1864
F1.0
sg3365
g3366
sg1837
Nsg1867
I01
sg1868
g3367
sg1870
Nsg1871
g2186
sg1873
g1874
sg3368
g0
(g1278
g2
Ntp3401
Rp3402
(dp3403
g14
I1
sg90
Nsg58
g59
sg41
(dp3404
sbsg1875
g1876
sg1877
g1965
sg1879
I0
sg3373
(g3374
g0
(g1278
g2
Ntp3405
Rp3406
(dp3407
g14
I1
sg90
Nsg58
g59
sg41
(dp3408
sbtp3409
sg1880
I01
sg1882
Nsg3380
g3391
sg60
g185
sg1865
Nsg2129
F2.5
sg1883
g3381
sg1885
Nsg1886
g7
sg1838
Nsg2426
g0
(g1999
g2
Ntp3410
Rp3411
(dp3412
g2003
I00
sg2004
Nsg2016
g26
(g27
(I0
tp3413
g29
tp3414
Rp3415
(I1
(I2
I2
tp3416
g36
I00
S'\x00\x00\x00\x00\x00\x00\xf0?\x00\x00\x00\x00\x00\x00*@\x00\x00\x00\x00\x00\x00\xf0?\x00\x00\x00\x00\x00\x00*@'
p3417
tp3418
bsg2023
I00
sg2024
F0.1111111111111111
sg2025
I1
sg2026
I00
sbsbsVbottom
p3419
g0
(g3352
g2
Ntp3420
Rp3421
(dp3422
g1793
g59
sg2289
I00
sg1845
I01
sg1814
g1817
sg3356
Nsg1813
I01
sg1819
Nsg1846
Nsg1823
g1824
sg1847
Nsg1803
I01
sg2268
g2249
sg1848
g0
(g1278
g2
Ntp3423
Rp3424
(dp3425
g14
I1
sg90
Nsg58
g59
sg41
(dp3426
sbsg1853
(F0.0
F0.0
F0.0
F1.0
tp3427
sg1828
Nsg1855
Nsg1829
Nsg1820
Nsg1832
I00
sg1833
I00
sg1834
(dp3428
sg2217
g3364
sg1836
I00
sg1862
Nsg1863
I01
sg1864
F1.0
sg3365
g3366
sg1837
Nsg1867
I01
sg1868
g3367
sg1870
Nsg1871
g2186
sg1873
g1874
sg3368
g0
(g1278
g2
Ntp3429
Rp3430
(dp3431
g14
I1
sg90
Nsg58
g59
sg41
(dp3432
sbsg1875
g1876
sg1877
g1965
sg1879
I0
sg3373
(g3374
g0
(g1278
g2
Ntp3433
Rp3434
(dp3435
g14
I1
sg90
Nsg58
g59
sg41
(dp3436
sbtp3437
sg1880
I01
sg1882
Nsg3380
g3419
sg60
g264
sg1865
Nsg2129
F2.5
sg1883
g3381
sg1885
Nsg1886
g7
sg1838
Nsg2426
g0
(g1999
g2
Ntp3438
Rp3439
(dp3440
g2003
I00
sg2004
Nsg2016
g26
(g27
(I0
tp3441
g29
tp3442
Rp3443
(I1
(I2
I2
tp3444
g36
I00
S'\x00\x00\x00\x00\x00\x00*@\x00\x00\x00\x00\x00\x00\x00\x00\x00\x00\x00\x00\x00\x00*@\x00\x00\x00\x00\x00\x00\x00\x00'
p3445
tp3446
bsg2023
I00
sg2024
F0.1111111111111111
sg2025
I1
sg2026
I00
sbsbsVleft
p3447
g0
(g3352
g2
Ntp3448
Rp3449
(dp3450
g1793
g59
sg2289
I00
sg1845
I01
sg1814
g1817
sg3356
Nsg1813
I01
sg1819
Nsg1846
Nsg1823
g1824
sg1847
Nsg1803
I01
sg2268
g2874
sg1848
g0
(g1278
g2
Ntp3451
Rp3452
(dp3453
g14
I1
sg90
Nsg58
g59
sg41
(dp3454
sbsg1853
(F0.0
F0.0
F0.0
F1.0
tp3455
sg1828
Nsg1855
Nsg1829
Nsg1820
Nsg1832
I00
sg1833
I00
sg1834
(dp3456
sg2217
g3364
sg1836
I00
sg1862
Nsg1863
I01
sg1864
F1.0
sg3365
g3366
sg1837
Nsg1867
I01
sg1868
g3367
sg1870
Nsg1871
g2186
sg1873
g1874
sg3368
g0
(g1278
g2
Ntp3457
Rp3458
(dp3459
g14
I1
sg90
Nsg58
g59
sg41
(dp3460
sbsg1875
g1876
sg1877
g1965
sg1879
I0
sg3373
(g3374
g0
(g1278
g2
Ntp3461
Rp3462
(dp3463
g14
I1
sg90
Nsg58
g59
sg41
(dp3464
sbtp3465
sg1880
I01
sg1882
Nsg3380
g3447
sg60
g185
sg1865
Nsg2129
F2.5
sg1883
g3381
sg1885
Nsg1886
g7
sg1838
Nsg2426
g0
(g1999
g2
Ntp3466
Rp3467
(dp3468
g2003
I00
sg2004
Nsg2016
g26
(g27
(I0
tp3469
g29
tp3470
Rp3471
(I1
(I2
I2
tp3472
g36
I00
S'\x00\x00\x00\x00\x00\x00\x00\x00\x00\x00\x00\x00\x00\x00*@\x00\x00\x00\x00\x00\x00\x00\x00\x00\x00\x00\x00\x00\x00*@'
p3473
tp3474
bsg2023
I00
sg2024
F0.1111111111111111
sg2025
I1
sg2026
I00
sbsbssg1847
Nsg1885
NsS'_axisbg'
p3475
g1878
sb.